(dp0
S'cookies'
p1
(dp2
S'wxloadtime'
p3
S'1493630596_expired'
p4
sS'webwx_data_ticket'
p5
S'gScswBlFPml9fe3RyAC6wZKt'
p6
sS'wxuin'
p7
S'2574261122'
p8
sS'login_frequency'
p9
S'2'
p10
sS'MM_WX_NOTIFY_STATE'
p11
S'1'
p12
sS'MM_WX_SOUND_STATE'
p13
g12
sS'webwx_auth_ticket'
p14
S'CIsBEJS32WUagAERjthxjlkr88IhMYh3hdNces5P4thjw0zVFL+ZoPbKkbKH92KjlgubD0Hkll82YxnRodkNqHK3Y8q8yoHfyM2F/3lHX3VmvxowyjwgQ000dk+hwG7sOjx3Mx1QzUHt4xRxALDL5DtBSwrjE5tlMjvHvn0+nFRCsiq9R9ZBX3S/3Q=='
p15
sS'last_wxuin'
p16
S'2574261122'
p17
sS'webwxuvid'
p18
S'a830fddc42646c768b61134c51d9ca613e1d5153e6f947b018a7a768caede78830b8d0d727bf7ad1db39f3b567db5a48'
p19
sS'wxpluginkey'
p20
S'1493627722'
p21
sS'wxsid'
p22
S'r/KhtAM3C0ofrftK'
p23
sS'mm_lang'
p24
S'zh_CN'
p25
ssS'version'
p26
S'1.3.5'
p27
sS'storage'
p28
(dp29
S'userName'
p30
V@bc8052e1cfacb8e0cc88365ad099f789d3e528f1b91523ce2b84fc7f1698e544
p31
sS'lastInputUserName'
p32
NsS'memberList'
p33
ccopy_reg
_reconstructor
p34
(citchat.storage.templates
ContactList
p35
c__builtin__
list
p36
(lp37
g34
(citchat.storage.templates
User
p38
c__builtin__
dict
p39
(dp40
S'UserName'
p41
g31
sS'City'
p42
S''
p43
sS'DisplayName'
p44
g43
sS'UniFriend'
p45
I0
sS'OwnerUin'
p46
I0
sS'MemberList'
p47
g34
(g35
g36
(lp48
tp49
Rp50
I1
bsS'PYQuanPin'
p51
V
p52
sS'RemarkPYInitial'
p53
g52
sS'Uin'
p54
L2574261122L
sS'AppAccountFlag'
p55
I0
sS'VerifyFlag'
p56
I0
sS'Province'
p57
g43
sS'KeyWord'
p58
g43
sS'RemarkName'
p59
g52
sS'PYInitial'
p60
g52
sS'ChatRoomId'
p61
I0
sS'HideInputBarFlag'
p62
I0
sVHeadImgFlag
p63
I1
sS'EncryChatRoomId'
p64
g43
sS'AttrStatus'
p65
I0
sS'SnsFlag'
p66
I17
sS'MemberCount'
p67
I0
sVWebWxPluginSwitch
p68
I0
sS'Alias'
p69
g43
sS'Signature'
p70
VLess is more
p71
sS'ContactFlag'
p72
I0
sS'NickName'
p73
VAndy
p74
sS'RemarkPYQuanPin'
p75
g52
sS'HeadImgUrl'
p76
V/cgi-bin/mmwebwx-bin/webwxgeticon?seq=1496736675&username=@bc8052e1cfacb8e0cc88365ad099f789d3e528f1b91523ce2b84fc7f1698e544&skey=@crypt_17449ad9_a9a1d041023c89b07381fe036e221b03
p77
sS'Sex'
p78
I1
sS'StarFriend'
p79
I0
sS'Statues'
p80
I0
stp81
Rp82
I1
bag34
(g38
g39
(dp83
VUserName
p84
V@209339b8cca0f4a5e653e54ffa433272c0e7a1a046424bf83b7c1d749ba41cb7
p85
sVCity
p86
V\u6d4e\u5357
p87
sVSnsFlag
p88
I1
sVDisplayName
p89
g52
sVUniFriend
p90
I0
sVMemberCount
p91
I0
sVOwnerUin
p92
I0
sVMemberList
p93
g50
sVAlias
p94
g52
sVPYQuanPin
p95
Vwangzhewudi
p96
sVSignature
p97
g52
sVRemarkPYInitial
p98
VYY
p99
sVContactFlag
p100
I3
sVUin
p101
I0
sVNickName
p102
V\u738b\u8005\u65e0\u654c
p103
sVAppAccountFlag
p104
I0
sVVerifyFlag
p105
I0
sVRemarkPYQuanPin
p106
Vyouyou
p107
sVHeadImgUrl
p108
V/cgi-bin/mmwebwx-bin/webwxgeticon?seq=633075615&username=@209339b8cca0f4a5e653e54ffa433272c0e7a1a046424bf83b7c1d749ba41cb7&skey=@crypt_17449ad9_a9a1d041023c89b07381fe036e221b03
p109
sVKeyWord
p110
g52
sVProvince
p111
V\u5c71\u4e1c
p112
sVPYInitial
p113
VWZWD
p114
sVRemarkName
p115
V\u4f18\u4f18
p116
sVStarFriend
p117
I0
sVSex
p118
I2
sVIsOwner
p119
I0
sVHideInputBarFlag
p120
I0
sVChatRoomId
p121
I0
sVEncryChatRoomId
p122
g52
sVAttrStatus
p123
I104481
sVStatues
p124
I0
stp125
Rp126
I1
bag34
(g38
g39
(dp127
VUserName
p128
V@8ef05c8cf09d1de2b098a2a45165105e
p129
sVCity
p130
V\u6ee8\u5dde
p131
sVSnsFlag
p132
I49
sVDisplayName
p133
g52
sVUniFriend
p134
I0
sVMemberCount
p135
I0
sVOwnerUin
p136
I0
sVMemberList
p137
g50
sVAlias
p138
g52
sVPYQuanPin
p139
Vliugang
p140
sVSignature
p141
V\u52c7\u5f80\u76f4\u524d
p142
sVRemarkPYInitial
p143
g52
sVContactFlag
p144
I65793
sVUin
p145
I0
sVNickName
p146
V\u5218\u521a
p147
sVAppAccountFlag
p148
I0
sVVerifyFlag
p149
I0
sVRemarkPYQuanPin
p150
g52
sVHeadImgUrl
p151
V/cgi-bin/mmwebwx-bin/webwxgeticon?seq=637150061&username=@8ef05c8cf09d1de2b098a2a45165105e&skey=@crypt_17449ad9_a9a1d041023c89b07381fe036e221b03
p152
sVKeyWord
p153
Vada
p154
sVProvince
p155
V\u5c71\u4e1c
p156
sVPYInitial
p157
VLG
p158
sVRemarkName
p159
g52
sVStarFriend
p160
I0
sVSex
p161
I1
sVIsOwner
p162
I0
sVHideInputBarFlag
p163
I0
sVChatRoomId
p164
I0
sVEncryChatRoomId
p165
g52
sVAttrStatus
p166
I4296807
sVStatues
p167
I0
stp168
Rp169
I1
bag34
(g38
g39
(dp170
VUserName
p171
V@45ea57283d5a6f6070124307af02415270086880c180a9ae4d747d6b835a52e2
p172
sVCity
p173
g52
sVSnsFlag
p174
I17
sVDisplayName
p175
g52
sVUniFriend
p176
I0
sVMemberCount
p177
I0
sVOwnerUin
p178
I0
sVMemberList
p179
g50
sVAlias
p180
g52
sVPYQuanPin
p181
Vjun
p182
sVSignature
p183
g52
sVRemarkPYInitial
p184
g52
sVContactFlag
p185
I65793
sVUin
p186
I0
sVNickName
p187
V\u541b
p188
sVAppAccountFlag
p189
I0
sVVerifyFlag
p190
I0
sVRemarkPYQuanPin
p191
g52
sVHeadImgUrl
p192
V/cgi-bin/mmwebwx-bin/webwxgeticon?seq=647950641&username=@45ea57283d5a6f6070124307af02415270086880c180a9ae4d747d6b835a52e2&skey=@crypt_17449ad9_a9a1d041023c89b07381fe036e221b03
p193
sVKeyWord
p194
g52
sVProvince
p195
g52
sVPYInitial
p196
VJ
p197
sVRemarkName
p198
g52
sVStarFriend
p199
I0
sVSex
p200
I0
sVIsOwner
p201
I0
sVHideInputBarFlag
p202
I0
sVChatRoomId
p203
I0
sVEncryChatRoomId
p204
g52
sVAttrStatus
p205
I4133
sVStatues
p206
I0
stp207
Rp208
I1
bag34
(g38
g39
(dp209
VUserName
p210
V@8d7ef59f78b3938dcb63c4808f59551b3341831369351164c543a5096e99f463
p211
sVCity
p212
g52
sVSnsFlag
p213
I17
sVDisplayName
p214
g52
sVUniFriend
p215
I0
sVMemberCount
p216
I0
sVOwnerUin
p217
I0
sVMemberList
p218
g50
sVAlias
p219
g52
sVPYQuanPin
p220
Vbianzoubiankan
p221
sVSignature
p222
V\u82e5\u5f85\u4e0a\u6797\u82b1\u4f3c\u666f\uff0c\u51fa\u95e8\u4ff1\u662f\u770b\u82b1\u4eba
p223
sVRemarkPYInitial
p224
VBZBKXX
p225
sVContactFlag
p226
I65537
sVUin
p227
I0
sVNickName
p228
V\u8fb9\u8d70\u8fb9\u770b
p229
sVAppAccountFlag
p230
I0
sVVerifyFlag
p231
I0
sVRemarkPYQuanPin
p232
Vbianzoubiankanxiaoxiu
p233
sVHeadImgUrl
p234
V/cgi-bin/mmwebwx-bin/webwxgeticon?seq=648671428&username=@8d7ef59f78b3938dcb63c4808f59551b3341831369351164c543a5096e99f463&skey=@crypt_17449ad9_a9a1d041023c89b07381fe036e221b03
p235
sVKeyWord
p236
g52
sVProvince
p237
V\u9655\u897f
p238
sVPYInitial
p239
VBZBK
p240
sVRemarkName
p241
V\u8fb9\u8d70\u8fb9\u770b\uff0c\u5c0f\u79c0
p242
sVStarFriend
p243
I0
sVSex
p244
I0
sVIsOwner
p245
I0
sVHideInputBarFlag
p246
I0
sVChatRoomId
p247
I0
sVEncryChatRoomId
p248
g52
sVAttrStatus
p249
I230397
sVStatues
p250
I0
stp251
Rp252
I1
bag34
(g38
g39
(dp253
VUserName
p254
V@54004f1c8007f6c6db1cc9b122101e9ad0cfc6a74d05e9cfb72c2bda9b888cfd
p255
sVCity
p256
V\u6d4e\u5357
p257
sVSnsFlag
p258
I17
sVDisplayName
p259
g52
sVUniFriend
p260
I0
sVMemberCount
p261
I0
sVOwnerUin
p262
I0
sVMemberList
p263
g50
sVAlias
p264
g52
sVPYQuanPin
p265
Vnenan
p266
sVSignature
p267
g52
sVRemarkPYInitial
p268
VHWX
p269
sVContactFlag
p270
I1
sVUin
p271
I0
sVNickName
p272
V\u5462\u5583
p273
sVAppAccountFlag
p274
I0
sVVerifyFlag
p275
I0
sVRemarkPYQuanPin
p276
Vhanwenxin
p277
sVHeadImgUrl
p278
V/cgi-bin/mmwebwx-bin/webwxgeticon?seq=640420354&username=@54004f1c8007f6c6db1cc9b122101e9ad0cfc6a74d05e9cfb72c2bda9b888cfd&skey=@crypt_17449ad9_a9a1d041023c89b07381fe036e221b03
p279
sVKeyWord
p280
g52
sVProvince
p281
V\u5c71\u4e1c
p282
sVPYInitial
p283
VNN
p284
sVRemarkName
p285
V\u97e9\u6587\u6b23
p286
sVStarFriend
p287
I0
sVSex
p288
I2
sVIsOwner
p289
I0
sVHideInputBarFlag
p290
I0
sVChatRoomId
p291
I0
sVEncryChatRoomId
p292
g52
sVAttrStatus
p293
I37
sVStatues
p294
I0
stp295
Rp296
I1
bag34
(g38
g39
(dp297
VUserName
p298
V@420fe747286e36f5915a98c30b797fb5953761abf131d02203ddfd0dfc109219
p299
sVCity
p300
g52
sVSnsFlag
p301
I17
sVDisplayName
p302
g52
sVUniFriend
p303
I0
sVMemberCount
p304
I0
sVOwnerUin
p305
I0
sVMemberList
p306
g50
sVAlias
p307
g52
sVPYQuanPin
p308
VFrankGao
p309
sVSignature
p310
V\u65b0\u6d6a\u5fae\u535ataxgis@sina.com
p311
sVRemarkPYInitial
p312
g52
sVContactFlag
p313
I1
sVUin
p314
I0
sVNickName
p315
VFrank Gao
p316
sVAppAccountFlag
p317
I0
sVVerifyFlag
p318
I0
sVRemarkPYQuanPin
p319
g52
sVHeadImgUrl
p320
V/cgi-bin/mmwebwx-bin/webwxgeticon?seq=648683759&username=@420fe747286e36f5915a98c30b797fb5953761abf131d02203ddfd0dfc109219&skey=@crypt_17449ad9_a9a1d041023c89b07381fe036e221b03
p321
sVKeyWord
p322
g52
sVProvince
p323
V\u5c71\u4e1c
p324
sVPYInitial
p325
VFRANKGAO
p326
sVRemarkName
p327
g52
sVStarFriend
p328
I0
sVSex
p329
I1
sVIsOwner
p330
I0
sVHideInputBarFlag
p331
I0
sVChatRoomId
p332
I0
sVEncryChatRoomId
p333
g52
sVAttrStatus
p334
I104549
sVStatues
p335
I0
stp336
Rp337
I1
bag34
(g38
g39
(dp338
VUserName
p339
V@27b5206d02ce2f52629d04197ad2730fe57a7457e2202b6d2176792c9995c0aa
p340
sVCity
p341
g52
sVSnsFlag
p342
I17
sVDisplayName
p343
g52
sVUniFriend
p344
I0
sVMemberCount
p345
I0
sVOwnerUin
p346
I0
sVMemberList
p347
g50
sVAlias
p348
g52
sVPYQuanPin
p349
Vshujuxiaozheng
p350
sVSignature
p351
g52
sVRemarkPYInitial
p352
g52
sVContactFlag
p353
I1
sVUin
p354
I0
sVNickName
p355
V\u6570\u636e\u5c0f\u653f
p356
sVAppAccountFlag
p357
I0
sVVerifyFlag
p358
I0
sVRemarkPYQuanPin
p359
g52
sVHeadImgUrl
p360
V/cgi-bin/mmwebwx-bin/webwxgeticon?seq=648684081&username=@27b5206d02ce2f52629d04197ad2730fe57a7457e2202b6d2176792c9995c0aa&skey=@crypt_17449ad9_a9a1d041023c89b07381fe036e221b03
p361
sVKeyWord
p362
g52
sVProvince
p363
g52
sVPYInitial
p364
VSJXZ
p365
sVRemarkName
p366
g52
sVStarFriend
p367
I0
sVSex
p368
I0
sVIsOwner
p369
I0
sVHideInputBarFlag
p370
I0
sVChatRoomId
p371
I0
sVEncryChatRoomId
p372
g52
sVAttrStatus
p373
I17006629
sVStatues
p374
I0
stp375
Rp376
I1
bag34
(g38
g39
(dp377
VUserName
p378
V@f59e43c7958d2b822d92c0f345fa5592
p379
sVCity
p380
V\u6d4e\u5357
p381
sVSnsFlag
p382
I17
sVDisplayName
p383
g52
sVUniFriend
p384
I0
sVMemberCount
p385
I0
sVOwnerUin
p386
I0
sVMemberList
p387
g50
sVAlias
p388
g52
sVPYQuanPin
p389
Vdingxiaoniuspanclassemojiemoji1f525spanspanclassemojiemoji1f525spanxiangqiankan
p390
sVSignature
p391
V\u6211\u6240\u7406\u89e3\u7684\u751f\u6d3b \u5c31\u662f\u52aa\u529b\u7684\u548c\u559c\u6b22\u7684\u4e00\u5207\u5728\u4e00\u8d77
p392
sVRemarkPYInitial
p393
g52
sVContactFlag
p394
I1
sVUin
p395
I0
sVNickName
p396
V\u4e01\u5c0f\u599e \U0001f525 \U0001f525 \u5411\u524d\u770b
p397
sVAppAccountFlag
p398
I0
sVVerifyFlag
p399
I0
sVRemarkPYQuanPin
p400
g52
sVHeadImgUrl
p401
V/cgi-bin/mmwebwx-bin/webwxgeticon?seq=648684097&username=@f59e43c7958d2b822d92c0f345fa5592&skey=@crypt_17449ad9_a9a1d041023c89b07381fe036e221b03
p402
sVKeyWord
p403
Vpen
p404
sVProvince
p405
V\u5c71\u4e1c
p406
sVPYInitial
p407
VDXNSPANCLASSEMOJIEMOJI1F525SPANSPANCLASSEMOJIEMOJI1F525SPANXQK
p408
sVRemarkName
p409
g52
sVStarFriend
p410
I0
sVSex
p411
I2
sVIsOwner
p412
I0
sVHideInputBarFlag
p413
I0
sVChatRoomId
p414
I0
sVEncryChatRoomId
p415
g52
sVAttrStatus
p416
I101541
sVStatues
p417
I0
stp418
Rp419
I1
bag34
(g38
g39
(dp420
VUserName
p421
V@ff60856c390fbb55654083170fee52c7
p422
sVCity
p423
V\u5b9c\u6625
p424
sVSnsFlag
p425
I49
sVDisplayName
p426
g52
sVUniFriend
p427
I0
sVMemberCount
p428
I0
sVOwnerUin
p429
I0
sVMemberList
p430
g50
sVAlias
p431
g52
sVPYQuanPin
p432
Vsajiang
p433
sVSignature
p434
V\u79bb\u5bc2\u4e3a\u9759
p435
sVRemarkPYInitial
p436
g52
sVContactFlag
p437
I1
sVUin
p438
I0
sVNickName
p439
V\u6f75\u59dc
p440
sVAppAccountFlag
p441
I0
sVVerifyFlag
p442
I0
sVRemarkPYQuanPin
p443
g52
sVHeadImgUrl
p444
V/cgi-bin/mmwebwx-bin/webwxgeticon?seq=628403255&username=@ff60856c390fbb55654083170fee52c7&skey=@crypt_17449ad9_a9a1d041023c89b07381fe036e221b03
p445
sVKeyWord
p446
Vliu
p447
sVProvince
p448
V\u6c5f\u897f
p449
sVPYInitial
p450
VSJ
p451
sVRemarkName
p452
g52
sVStarFriend
p453
I0
sVSex
p454
I1
sVIsOwner
p455
I0
sVHideInputBarFlag
p456
I0
sVChatRoomId
p457
I0
sVEncryChatRoomId
p458
g52
sVAttrStatus
p459
I100391
sVStatues
p460
I0
stp461
Rp462
I1
bag34
(g38
g39
(dp463
VUserName
p464
V@66e6ad69f84159aefb730ef6a4b8554eac2d86bcfa6d0da400db5fbed51adf6a
p465
sVCity
p466
V\u676d\u5dde
p467
sVSnsFlag
p468
I17
sVDisplayName
p469
g52
sVUniFriend
p470
I0
sVMemberCount
p471
I0
sVOwnerUin
p472
I0
sVMemberList
p473
g50
sVAlias
p474
g52
sVPYQuanPin
p475
Vlaohuhuzilihulin
p476
sVSignature
p477
V\uff1a)
p478
sVRemarkPYInitial
p479
g52
sVContactFlag
p480
I1
sVUin
p481
I0
sVNickName
p482
V\u8001\u864e\uff0c\u864e\u5b50\uff0c\u674e\u864e\u6797
p483
sVAppAccountFlag
p484
I0
sVVerifyFlag
p485
I0
sVRemarkPYQuanPin
p486
g52
sVHeadImgUrl
p487
V/cgi-bin/mmwebwx-bin/webwxgeticon?seq=632100107&username=@66e6ad69f84159aefb730ef6a4b8554eac2d86bcfa6d0da400db5fbed51adf6a&skey=@crypt_17449ad9_a9a1d041023c89b07381fe036e221b03
p488
sVKeyWord
p489
g52
sVProvince
p490
V\u6d59\u6c5f
p491
sVPYInitial
p492
VLHHZLHL
p493
sVRemarkName
p494
g52
sVStarFriend
p495
I0
sVSex
p496
I1
sVIsOwner
p497
I0
sVHideInputBarFlag
p498
I0
sVChatRoomId
p499
I0
sVEncryChatRoomId
p500
g52
sVAttrStatus
p501
I176229
sVStatues
p502
I0
stp503
Rp504
I1
bag34
(g38
g39
(dp505
VUserName
p506
V@9b05199f1063c8b5379a0171ecdec990a7ce4394bba2092b982f58f56a49e44b
p507
sVCity
p508
g52
sVSnsFlag
p509
I17
sVDisplayName
p510
g52
sVUniFriend
p511
I0
sVMemberCount
p512
I0
sVOwnerUin
p513
I0
sVMemberList
p514
g50
sVAlias
p515
g52
sVPYQuanPin
p516
Vwanglaoyezi
p517
sVSignature
p518
g52
sVRemarkPYInitial
p519
g52
sVContactFlag
p520
I1
sVUin
p521
I0
sVNickName
p522
V\u738b\u8001\u7237\u5b50
p523
sVAppAccountFlag
p524
I0
sVVerifyFlag
p525
I0
sVRemarkPYQuanPin
p526
g52
sVHeadImgUrl
p527
V/cgi-bin/mmwebwx-bin/webwxgeticon?seq=657361181&username=@9b05199f1063c8b5379a0171ecdec990a7ce4394bba2092b982f58f56a49e44b&skey=@crypt_17449ad9_a9a1d041023c89b07381fe036e221b03
p528
sVKeyWord
p529
g52
sVProvince
p530
g52
sVPYInitial
p531
VWLYZ
p532
sVRemarkName
p533
g52
sVStarFriend
p534
I0
sVSex
p535
I0
sVIsOwner
p536
I0
sVHideInputBarFlag
p537
I0
sVChatRoomId
p538
I0
sVEncryChatRoomId
p539
g52
sVAttrStatus
p540
I37
sVStatues
p541
I0
stp542
Rp543
I1
bag34
(g38
g39
(dp544
VUserName
p545
V@68186bc7c28ff5ff52ab249b7c2e659578268fc31ffe9abcc3d9159069ff1309
p546
sVCity
p547
g52
sVSnsFlag
p548
I1
sVDisplayName
p549
g52
sVUniFriend
p550
I0
sVMemberCount
p551
I0
sVOwnerUin
p552
I0
sVMemberList
p553
g50
sVAlias
p554
g52
sVPYQuanPin
p555
Vyoumuchenghuai
p556
sVSignature
p557
g52
sVRemarkPYInitial
p558
VYMCHHB
p559
sVContactFlag
p560
I1
sVUin
p561
I0
sVNickName
p562
V\u6e38\u76ee\u9a8b\u6000
p563
sVAppAccountFlag
p564
I0
sVVerifyFlag
p565
I0
sVRemarkPYQuanPin
p566
Vyoumuchenghuaihaibo
p567
sVHeadImgUrl
p568
V/cgi-bin/mmwebwx-bin/webwxgeticon?seq=657361119&username=@68186bc7c28ff5ff52ab249b7c2e659578268fc31ffe9abcc3d9159069ff1309&skey=@crypt_17449ad9_a9a1d041023c89b07381fe036e221b03
p569
sVKeyWord
p570
g52
sVProvince
p571
g52
sVPYInitial
p572
VYMCH
p573
sVRemarkName
p574
V\u6e38\u76ee\u9a8b\u6000\uff0c\u6d77\u6ce2
p575
sVStarFriend
p576
I0
sVSex
p577
I0
sVIsOwner
p578
I0
sVHideInputBarFlag
p579
I0
sVChatRoomId
p580
I0
sVEncryChatRoomId
p581
g52
sVAttrStatus
p582
I135205
sVStatues
p583
I0
stp584
Rp585
I1
bag34
(g38
g39
(dp586
VUserName
p587
V@c7c1bc5d8ed90388c6d8c1a205aefd9981fb3d3fcb99f0cee87a62580c6b9f51
p588
sVCity
p589
g52
sVSnsFlag
p590
I1
sVDisplayName
p591
g52
sVUniFriend
p592
I0
sVMemberCount
p593
I0
sVOwnerUin
p594
I0
sVMemberList
p595
g50
sVAlias
p596
g52
sVPYQuanPin
p597
Vhaikuotiankong
p598
sVSignature
p599
g52
sVRemarkPYInitial
p600
VHKTKLRW
p601
sVContactFlag
p602
I1
sVUin
p603
I0
sVNickName
p604
V\u6d77\u9614\u5929\u7a7a
p605
sVAppAccountFlag
p606
I0
sVVerifyFlag
p607
I0
sVRemarkPYQuanPin
p608
Vhaikuotiankongliurenwu
p609
sVHeadImgUrl
p610
V/cgi-bin/mmwebwx-bin/webwxgeticon?seq=648672508&username=@c7c1bc5d8ed90388c6d8c1a205aefd9981fb3d3fcb99f0cee87a62580c6b9f51&skey=@crypt_17449ad9_a9a1d041023c89b07381fe036e221b03
p611
sVKeyWord
p612
g52
sVProvince
p613
g52
sVPYInitial
p614
VHKTK
p615
sVRemarkName
p616
V\u6d77\u9614\u5929\u7a7a \u5218\u4ec1\u6b66
p617
sVStarFriend
p618
I0
sVSex
p619
I0
sVIsOwner
p620
I0
sVHideInputBarFlag
p621
I0
sVChatRoomId
p622
I0
sVEncryChatRoomId
p623
g52
sVAttrStatus
p624
I102501
sVStatues
p625
I0
stp626
Rp627
I1
bag34
(g38
g39
(dp628
VUserName
p629
V@1910ded7eb7e029823816fc939d5f806e71e9ce7d12dac749c8d8fe44817d4ba
p630
sVCity
p631
V\u4e1c\u839e
p632
sVSnsFlag
p633
I17
sVDisplayName
p634
g52
sVUniFriend
p635
I0
sVMemberCount
p636
I0
sVOwnerUin
p637
I0
sVMemberList
p638
g50
sVAlias
p639
g52
sVPYQuanPin
p640
VjiangguiqianAndyJiang
p641
sVSignature
p642
V\u6211\u8981\u98de\u5f97\u66f4\u9ad8\uff01
p643
sVRemarkPYInitial
p644
g52
sVContactFlag
p645
I1
sVUin
p646
I0
sVNickName
p647
V\u6c5f\u8d35\u5343Andy Jiang
p648
sVAppAccountFlag
p649
I0
sVVerifyFlag
p650
I0
sVRemarkPYQuanPin
p651
g52
sVHeadImgUrl
p652
V/cgi-bin/mmwebwx-bin/webwxgeticon?seq=648672601&username=@1910ded7eb7e029823816fc939d5f806e71e9ce7d12dac749c8d8fe44817d4ba&skey=@crypt_17449ad9_a9a1d041023c89b07381fe036e221b03
p653
sVKeyWord
p654
g52
sVProvince
p655
V\u5e7f\u4e1c
p656
sVPYInitial
p657
VJGQANDYJIANG
p658
sVRemarkName
p659
g52
sVStarFriend
p660
I0
sVSex
p661
I1
sVIsOwner
p662
I0
sVHideInputBarFlag
p663
I0
sVChatRoomId
p664
I0
sVEncryChatRoomId
p665
g52
sVAttrStatus
p666
I1853
sVStatues
p667
I0
stp668
Rp669
I1
bag34
(g38
g39
(dp670
VUserName
p671
V@1bfbb0044f9f41f36d12c54853b8369e
p672
sVCity
p673
g52
sVSnsFlag
p674
I49
sVDisplayName
p675
g52
sVUniFriend
p676
I0
sVMemberCount
p677
I0
sVOwnerUin
p678
I0
sVMemberList
p679
g50
sVAlias
p680
g52
sVPYQuanPin
p681
Vxingzhewujiang
p682
sVSignature
p683
V\u89c2\u8fc7\u82cd\u7a79\u4e4b\u65e0\u5c3d'\u65b9\u77e5\u4e00\u5df1\u4e4b\u6e3a\u5c0f
p684
sVRemarkPYInitial
p685
g52
sVContactFlag
p686
I1
sVUin
p687
I0
sVNickName
p688
V\u884c\u8005\u65e0\u7586
p689
sVAppAccountFlag
p690
I0
sVVerifyFlag
p691
I0
sVRemarkPYQuanPin
p692
g52
sVHeadImgUrl
p693
V/cgi-bin/mmwebwx-bin/webwxgeticon?seq=620591934&username=@1bfbb0044f9f41f36d12c54853b8369e&skey=@crypt_17449ad9_a9a1d041023c89b07381fe036e221b03
p694
sVKeyWord
p695
Va30
p696
sVProvince
p697
VZurich
p698
sVPYInitial
p699
VXZWJ
p700
sVRemarkName
p701
g52
sVStarFriend
p702
I0
sVSex
p703
I1
sVIsOwner
p704
I0
sVHideInputBarFlag
p705
I0
sVChatRoomId
p706
I0
sVEncryChatRoomId
p707
g52
sVAttrStatus
p708
L2147584701L
sVStatues
p709
I0
stp710
Rp711
I1
bag34
(g38
g39
(dp712
VUserName
p713
V@ce0b54c9d1027ec1a2f9978e9d07075cce53642b6b252e37e4f5437903a06124
p714
sVCity
p715
V\u6df1\u5733
p716
sVSnsFlag
p717
I49
sVDisplayName
p718
g52
sVUniFriend
p719
I0
sVMemberCount
p720
I0
sVOwnerUin
p721
I0
sVMemberList
p722
g50
sVAlias
p723
g52
sVPYQuanPin
p724
VGodai
p725
sVSignature
p726
g52
sVRemarkPYInitial
p727
g52
sVContactFlag
p728
I257
sVUin
p729
I0
sVNickName
p730
VGodai
p731
sVAppAccountFlag
p732
I0
sVVerifyFlag
p733
I0
sVRemarkPYQuanPin
p734
g52
sVHeadImgUrl
p735
V/cgi-bin/mmwebwx-bin/webwxgeticon?seq=657361936&username=@ce0b54c9d1027ec1a2f9978e9d07075cce53642b6b252e37e4f5437903a06124&skey=@crypt_17449ad9_a9a1d041023c89b07381fe036e221b03
p736
sVKeyWord
p737
g52
sVProvince
p738
V\u5e7f\u4e1c
p739
sVPYInitial
p740
VGODAI
p741
sVRemarkName
p742
g52
sVStarFriend
p743
I0
sVSex
p744
I1
sVIsOwner
p745
I0
sVHideInputBarFlag
p746
I0
sVChatRoomId
p747
I0
sVEncryChatRoomId
p748
g52
sVAttrStatus
p749
I234661
sVStatues
p750
I0
stp751
Rp752
I1
bag34
(g38
g39
(dp753
VUserName
p754
V@1bf1729cadd28cea5fc9c246261ba681
p755
sVCity
p756
V\u6d4e\u5357
p757
sVSnsFlag
p758
I49
sVDisplayName
p759
g52
sVUniFriend
p760
I0
sVMemberCount
p761
I0
sVOwnerUin
p762
I0
sVMemberList
p763
g50
sVAlias
p764
g52
sVPYQuanPin
p765
Vzimulinshanspanclassemojiemoji26c4spanspanclassemojiemoji26c4span
p766
sVSignature
p767
g52
sVRemarkPYInitial
p768
g52
sVContactFlag
p769
I1
sVUin
p770
I0
sVNickName
p771
V\u7d2b\u66ae\u7433\u73ca\u26c4\u26c4
p772
sVAppAccountFlag
p773
I0
sVVerifyFlag
p774
I0
sVRemarkPYQuanPin
p775
g52
sVHeadImgUrl
p776
V/cgi-bin/mmwebwx-bin/webwxgeticon?seq=627660123&username=@1bf1729cadd28cea5fc9c246261ba681&skey=@crypt_17449ad9_a9a1d041023c89b07381fe036e221b03
p777
sVKeyWord
p778
Vzim
p779
sVProvince
p780
V\u5c71\u4e1c
p781
sVPYInitial
p782
VZMLSSPANCLASSEMOJIEMOJI26C4SPANSPANCLASSEMOJIEMOJI26C4SPAN
p783
sVRemarkName
p784
g52
sVStarFriend
p785
I0
sVSex
p786
I2
sVIsOwner
p787
I0
sVHideInputBarFlag
p788
I0
sVChatRoomId
p789
I0
sVEncryChatRoomId
p790
g52
sVAttrStatus
p791
I233511
sVStatues
p792
I0
stp793
Rp794
I1
bag34
(g38
g39
(dp795
VUserName
p796
V@a63b90d7a23163dead344d665d08146a
p797
sVCity
p798
VNew York
p799
sVSnsFlag
p800
I49
sVDisplayName
p801
g52
sVUniFriend
p802
I0
sVMemberCount
p803
I0
sVOwnerUin
p804
I0
sVMemberList
p805
g50
sVAlias
p806
g52
sVPYQuanPin
p807
Vshuyan
p808
sVSignature
p809
g52
sVRemarkPYInitial
p810
g52
sVContactFlag
p811
I8193
sVUin
p812
I0
sVNickName
p813
V\u8212\u71d5
p814
sVAppAccountFlag
p815
I0
sVVerifyFlag
p816
I0
sVRemarkPYQuanPin
p817
g52
sVHeadImgUrl
p818
V/cgi-bin/mmwebwx-bin/webwxgeticon?seq=648686118&username=@a63b90d7a23163dead344d665d08146a&skey=@crypt_17449ad9_a9a1d041023c89b07381fe036e221b03
p819
sVKeyWord
p820
Vshu
p821
sVProvince
p822
VNew York
p823
sVPYInitial
p824
VSY
p825
sVRemarkName
p826
g52
sVStarFriend
p827
I0
sVSex
p828
I2
sVIsOwner
p829
I0
sVHideInputBarFlag
p830
I0
sVChatRoomId
p831
I0
sVEncryChatRoomId
p832
g52
sVAttrStatus
p833
I67207207
sVStatues
p834
I0
stp835
Rp836
I1
bag34
(g38
g39
(dp837
VUserName
p838
V@c3ecf337bed3cfc32637cd86ddde57444f05446f829bf499f56c838e7e8f0d85
p839
sVCity
p840
V\u5f90\u6c47
p841
sVSnsFlag
p842
I49
sVDisplayName
p843
g52
sVUniFriend
p844
I0
sVMemberCount
p845
I0
sVOwnerUin
p846
I0
sVMemberList
p847
g50
sVAlias
p848
g52
sVPYQuanPin
p849
Vchenjiansheng
p850
sVSignature
p851
V\u6625\u6696\u82b1\u5f00
p852
sVRemarkPYInitial
p853
g52
sVContactFlag
p854
I1
sVUin
p855
I0
sVNickName
p856
V\u9648\u5251\u751f
p857
sVAppAccountFlag
p858
I0
sVVerifyFlag
p859
I0
sVRemarkPYQuanPin
p860
g52
sVHeadImgUrl
p861
V/cgi-bin/mmwebwx-bin/webwxgeticon?seq=645560785&username=@c3ecf337bed3cfc32637cd86ddde57444f05446f829bf499f56c838e7e8f0d85&skey=@crypt_17449ad9_a9a1d041023c89b07381fe036e221b03
p862
sVKeyWord
p863
g52
sVProvince
p864
V\u4e0a\u6d77
p865
sVPYInitial
p866
VCJS
p867
sVRemarkName
p868
g52
sVStarFriend
p869
I0
sVSex
p870
I1
sVIsOwner
p871
I0
sVHideInputBarFlag
p872
I0
sVChatRoomId
p873
I0
sVEncryChatRoomId
p874
g52
sVAttrStatus
p875
I67212287
sVStatues
p876
I0
stp877
Rp878
I1
bag34
(g38
g39
(dp879
VUserName
p880
V@4bf49082702595aa7c775d1960e30461b792d5f4486ceb01cfd96ddf94e0fa98
p881
sVCity
p882
g52
sVSnsFlag
p883
I17
sVDisplayName
p884
g52
sVUniFriend
p885
I0
sVMemberCount
p886
I0
sVOwnerUin
p887
I0
sVMemberList
p888
g50
sVAlias
p889
g52
sVPYQuanPin
p890
Vbuzuibuxiu
p891
sVSignature
p892
g52
sVRemarkPYInitial
p893
g52
sVContactFlag
p894
I65537
sVUin
p895
I0
sVNickName
p896
V\u4e0d\u6700\u4e0d\u4fee
p897
sVAppAccountFlag
p898
I0
sVVerifyFlag
p899
I0
sVRemarkPYQuanPin
p900
g52
sVHeadImgUrl
p901
V/cgi-bin/mmwebwx-bin/webwxgeticon?seq=648688121&username=@4bf49082702595aa7c775d1960e30461b792d5f4486ceb01cfd96ddf94e0fa98&skey=@crypt_17449ad9_a9a1d041023c89b07381fe036e221b03
p902
sVKeyWord
p903
g52
sVProvince
p904
g52
sVPYInitial
p905
VBZBX
p906
sVRemarkName
p907
g52
sVStarFriend
p908
I0
sVSex
p909
I0
sVIsOwner
p910
I0
sVHideInputBarFlag
p911
I0
sVChatRoomId
p912
I0
sVEncryChatRoomId
p913
g52
sVAttrStatus
p914
I246845
sVStatues
p915
I0
stp916
Rp917
I1
bag34
(g38
g39
(dp918
VUserName
p919
V@ef85931210d3bc3b2120f60a44e58a9f
p920
sVCity
p921
g52
sVSnsFlag
p922
I17
sVDisplayName
p923
g52
sVUniFriend
p924
I0
sVMemberCount
p925
I0
sVOwnerUin
p926
I0
sVMemberList
p927
g50
sVAlias
p928
g52
sVPYQuanPin
p929
Vshanquxunhuan
p930
sVSignature
p931
V\u65e2\u7136\u4e0d\u5c51\u4e0e\u4eba\u4e3a\u4f0d\uff0c\u4f55\u5fc5\u5728\u4e4e\u4e0e\u4f17\u4e0d\u540c
p932
sVRemarkPYInitial
p933
VWYLL
p934
sVContactFlag
p935
I1
sVUin
p936
I0
sVNickName
p937
V\u5355\u66f2\u5faa\u73af
p938
sVAppAccountFlag
p939
I0
sVVerifyFlag
p940
I0
sVRemarkPYQuanPin
p941
Vwenyanlilin
p942
sVHeadImgUrl
p943
V/cgi-bin/mmwebwx-bin/webwxgeticon?seq=648687506&username=@ef85931210d3bc3b2120f60a44e58a9f&skey=@crypt_17449ad9_a9a1d041023c89b07381fe036e221b03
p944
sVKeyWord
p945
Vdtx
p946
sVProvince
p947
g52
sVPYInitial
p948
VSQXH
p949
sVRemarkName
p950
V\u6587\u5f66\u674e\u6797
p951
sVStarFriend
p952
I0
sVSex
p953
I2
sVIsOwner
p954
I0
sVHideInputBarFlag
p955
I0
sVChatRoomId
p956
I0
sVEncryChatRoomId
p957
g52
sVAttrStatus
p958
I5695
sVStatues
p959
I0
stp960
Rp961
I1
bag34
(g38
g39
(dp962
VUserName
p963
V@e3fbacb79a2f44a6d157a3c3a93d4783
p964
sVCity
p965
V\u95f5\u884c
p966
sVSnsFlag
p967
I49
sVDisplayName
p968
g52
sVUniFriend
p969
I0
sVMemberCount
p970
I0
sVOwnerUin
p971
I0
sVMemberList
p972
g50
sVAlias
p973
g52
sVPYQuanPin
p974
Vliaoshengbin
p975
sVSignature
p976
V\u77e5\u4eba\u8005\u667a\uff0c\u81ea\u77e5\u8005\u660e
p977
sVRemarkPYInitial
p978
g52
sVContactFlag
p979
I1
sVUin
p980
I0
sVNickName
p981
V\u5ed6\u76db\u5f6c
p982
sVAppAccountFlag
p983
I0
sVVerifyFlag
p984
I0
sVRemarkPYQuanPin
p985
g52
sVHeadImgUrl
p986
V/cgi-bin/mmwebwx-bin/webwxgeticon?seq=648670039&username=@e3fbacb79a2f44a6d157a3c3a93d4783&skey=@crypt_17449ad9_a9a1d041023c89b07381fe036e221b03
p987
sVKeyWord
p988
Vcha
p989
sVProvince
p990
V\u4e0a\u6d77
p991
sVPYInitial
p992
VLSB
p993
sVRemarkName
p994
g52
sVStarFriend
p995
I0
sVSex
p996
I1
sVIsOwner
p997
I0
sVHideInputBarFlag
p998
I0
sVChatRoomId
p999
I0
sVEncryChatRoomId
p1000
g52
sVAttrStatus
p1001
L2181167207L
sVStatues
p1002
I0
stp1003
Rp1004
I1
bag34
(g38
g39
(dp1005
VUserName
p1006
V@39fa1f04b7ba8331797293d021e3a6ce2ba4ad7e4e4a29f2bbb8d37af461c0c5
p1007
sVCity
p1008
g52
sVSnsFlag
p1009
I17
sVDisplayName
p1010
g52
sVUniFriend
p1011
I0
sVMemberCount
p1012
I0
sVOwnerUin
p1013
I0
sVMemberList
p1014
g50
sVAlias
p1015
g52
sVPYQuanPin
p1016
Vandaoquanlicaishi
p1017
sVSignature
p1018
g52
sVRemarkPYInitial
p1019
g52
sVContactFlag
p1020
I257
sVUin
p1021
I0
sVNickName
p1022
V\u5b89\u9053\u5168\u7406\u8d22\u5e08
p1023
sVAppAccountFlag
p1024
I0
sVVerifyFlag
p1025
I0
sVRemarkPYQuanPin
p1026
g52
sVHeadImgUrl
p1027
V/cgi-bin/mmwebwx-bin/webwxgeticon?seq=640420844&username=@39fa1f04b7ba8331797293d021e3a6ce2ba4ad7e4e4a29f2bbb8d37af461c0c5&skey=@crypt_17449ad9_a9a1d041023c89b07381fe036e221b03
p1028
sVKeyWord
p1029
g52
sVProvince
p1030
g52
sVPYInitial
p1031
VADQLCS
p1032
sVRemarkName
p1033
g52
sVStarFriend
p1034
I0
sVSex
p1035
I0
sVIsOwner
p1036
I0
sVHideInputBarFlag
p1037
I0
sVChatRoomId
p1038
I0
sVEncryChatRoomId
p1039
g52
sVAttrStatus
p1040
I229797
sVStatues
p1041
I0
stp1042
Rp1043
I1
bag34
(g38
g39
(dp1044
VUserName
p1045
V@4b33b160503056935fe6c051d44f791f
p1046
sVCity
p1047
V\u6d4e\u5357
p1048
sVSnsFlag
p1049
I49
sVDisplayName
p1050
g52
sVUniFriend
p1051
I0
sVMemberCount
p1052
I0
sVOwnerUin
p1053
I0
sVMemberList
p1054
g50
sVAlias
p1055
g52
sVPYQuanPin
p1056
Vkaixinliuliuba
p1057
sVSignature
p1058
V\u5f00\u5fc3\u5218\u5218\u7238
p1059
sVRemarkPYInitial
p1060
VLTM
p1061
sVContactFlag
p1062
I1
sVUin
p1063
I0
sVNickName
p1064
V\u5f00\u5fc3\u5218\u5218\u7238
p1065
sVAppAccountFlag
p1066
I0
sVVerifyFlag
p1067
I0
sVRemarkPYQuanPin
p1068
Vliutiemin
p1069
sVHeadImgUrl
p1070
V/cgi-bin/mmwebwx-bin/webwxgeticon?seq=657363000&username=@4b33b160503056935fe6c051d44f791f&skey=@crypt_17449ad9_a9a1d041023c89b07381fe036e221b03
p1071
sVKeyWord
p1072
Vtim
p1073
sVProvince
p1074
V\u5c71\u4e1c
p1075
sVPYInitial
p1076
VKXLLB
p1077
sVRemarkName
p1078
V\u5218\u94c1\u6c11
p1079
sVStarFriend
p1080
I0
sVSex
p1081
I1
sVIsOwner
p1082
I0
sVHideInputBarFlag
p1083
I0
sVChatRoomId
p1084
I0
sVEncryChatRoomId
p1085
g52
sVAttrStatus
p1086
I98343
sVStatues
p1087
I0
stp1088
Rp1089
I1
bag34
(g38
g39
(dp1090
VUserName
p1091
V@507202051d9fdc7ac1440ad5a5dffbed0724a0985d73f2920734753600285458
p1092
sVCity
p1093
g52
sVSnsFlag
p1094
I0
sVDisplayName
p1095
g52
sVUniFriend
p1096
I0
sVMemberCount
p1097
I0
sVOwnerUin
p1098
I0
sVMemberList
p1099
g50
sVAlias
p1100
g52
sVPYQuanPin
p1101
Vdalaospanclassemojiemoji1f431span
p1102
sVSignature
p1103
V\u6211\u662f\u5c0f<span class="emoji emoji1f431"></span>\uff0c\u6f02\u4eae\u7684\u5c0f<span class="emoji emoji1f431"></span>\uff01
p1104
sVRemarkPYInitial
p1105
VZXMZWF
p1106
sVContactFlag
p1107
I1
sVUin
p1108
I0
sVNickName
p1109
V\u5927\u4f6c\U0001f431
p1110
sVAppAccountFlag
p1111
I0
sVVerifyFlag
p1112
I0
sVRemarkPYQuanPin
p1113
Vzhouxiaomaozhouweifang
p1114
sVHeadImgUrl
p1115
V/cgi-bin/mmwebwx-bin/webwxgeticon?seq=648678139&username=@507202051d9fdc7ac1440ad5a5dffbed0724a0985d73f2920734753600285458&skey=@crypt_17449ad9_a9a1d041023c89b07381fe036e221b03
p1116
sVKeyWord
p1117
g52
sVProvince
p1118
g52
sVPYInitial
p1119
VDLSPANCLASSEMOJIEMOJI1F431SPAN
p1120
sVRemarkName
p1121
V\u5468\u5c0f\u732b \u5468\u4f1f\u82b3
p1122
sVStarFriend
p1123
I0
sVSex
p1124
I0
sVIsOwner
p1125
I0
sVHideInputBarFlag
p1126
I0
sVChatRoomId
p1127
I0
sVEncryChatRoomId
p1128
g52
sVAttrStatus
p1129
I104485
sVStatues
p1130
I0
stp1131
Rp1132
I1
bag34
(g38
g39
(dp1133
VUserName
p1134
V@ecb97919017234801458d403d6f0a0dfcf6a28b4f7e205d0f1cab4d8e0e5e3d9
p1135
sVCity
p1136
g52
sVSnsFlag
p1137
I17
sVDisplayName
p1138
g52
sVUniFriend
p1139
I0
sVMemberCount
p1140
I0
sVOwnerUin
p1141
I0
sVMemberList
p1142
g50
sVAlias
p1143
g52
sVPYQuanPin
p1144
Vwawa
p1145
sVSignature
p1146
V\u505a\u771f\u5b9e\u7684\u81ea\u5df1\uff0c\u6d3b\u51fa\u7cbe\u5f69\u4eba\u751f\uff01
p1147
sVRemarkPYInitial
p1148
VZMWW
p1149
sVContactFlag
p1150
I1
sVUin
p1151
I0
sVNickName
p1152
V\u5a03\u5a03
p1153
sVAppAccountFlag
p1154
I0
sVVerifyFlag
p1155
I0
sVRemarkPYQuanPin
p1156
Vzhumingwawa
p1157
sVHeadImgUrl
p1158
V/cgi-bin/mmwebwx-bin/webwxgeticon?seq=657364116&username=@ecb97919017234801458d403d6f0a0dfcf6a28b4f7e205d0f1cab4d8e0e5e3d9&skey=@crypt_17449ad9_a9a1d041023c89b07381fe036e221b03
p1159
sVKeyWord
p1160
g52
sVProvince
p1161
g52
sVPYInitial
p1162
VWW
p1163
sVRemarkName
p1164
V\u6731\u660e\uff5e\u5a03\u5a03
p1165
sVStarFriend
p1166
I0
sVSex
p1167
I2
sVIsOwner
p1168
I0
sVHideInputBarFlag
p1169
I0
sVChatRoomId
p1170
I0
sVEncryChatRoomId
p1171
g52
sVAttrStatus
p1172
I4133
sVStatues
p1173
I0
stp1174
Rp1175
I1
bag34
(g38
g39
(dp1176
VUserName
p1177
V@514ae7d87ab4e5906a23916366914a2a
p1178
sVCity
p1179
V\u6d4e\u5357
p1180
sVSnsFlag
p1181
I49
sVDisplayName
p1182
g52
sVUniFriend
p1183
I0
sVMemberCount
p1184
I0
sVOwnerUin
p1185
I0
sVMemberList
p1186
g50
sVAlias
p1187
g52
sVPYQuanPin
p1188
Veric
p1189
sVSignature
p1190
V\u8981\u7ecf\u5e38\u62ac\u5934\u4ef0\u671b
p1191
sVRemarkPYInitial
p1192
VDWBERIC
p1193
sVContactFlag
p1194
I1
sVUin
p1195
I0
sVNickName
p1196
Veric
p1197
sVAppAccountFlag
p1198
I0
sVVerifyFlag
p1199
I0
sVRemarkPYQuanPin
p1200
Vduwanbineric
p1201
sVHeadImgUrl
p1202
V/cgi-bin/mmwebwx-bin/webwxgeticon?seq=657364144&username=@514ae7d87ab4e5906a23916366914a2a&skey=@crypt_17449ad9_a9a1d041023c89b07381fe036e221b03
p1203
sVKeyWord
p1204
Vjac
p1205
sVProvince
p1206
V\u5c71\u4e1c
p1207
sVPYInitial
p1208
VERIC
p1209
sVRemarkName
p1210
V\u675c\u4e07\u658ceric
p1211
sVStarFriend
p1212
I0
sVSex
p1213
I1
sVIsOwner
p1214
I0
sVHideInputBarFlag
p1215
I0
sVChatRoomId
p1216
I0
sVEncryChatRoomId
p1217
g52
sVAttrStatus
p1218
I233509
sVStatues
p1219
I0
stp1220
Rp1221
I1
bag34
(g38
g39
(dp1222
VUserName
p1223
V@12dad3fb50a390b1304013f10fe5d1561568d35b0ee3c6aec5f1e55c85380af8
p1224
sVCity
p1225
g52
sVSnsFlag
p1226
I49
sVDisplayName
p1227
g52
sVUniFriend
p1228
I0
sVMemberCount
p1229
I0
sVOwnerUin
p1230
I0
sVMemberList
p1231
g50
sVAlias
p1232
g52
sVPYQuanPin
p1233
Vyy
p1234
sVSignature
p1235
V\u8eab\u672a\u52a8\uff0c\u5fc3\u5df2\u8fdc\u3002\u3002\u3002
p1236
sVRemarkPYInitial
p1237
VZYSYY
p1238
sVContactFlag
p1239
I1
sVUin
p1240
I0
sVNickName
p1241
Vyy
p1242
sVAppAccountFlag
p1243
I0
sVVerifyFlag
p1244
I0
sVRemarkPYQuanPin
p1245
Vzhangyueshanyy
p1246
sVHeadImgUrl
p1247
V/cgi-bin/mmwebwx-bin/webwxgeticon?seq=643361365&username=@12dad3fb50a390b1304013f10fe5d1561568d35b0ee3c6aec5f1e55c85380af8&skey=@crypt_17449ad9_a9a1d041023c89b07381fe036e221b03
p1248
sVKeyWord
p1249
g52
sVProvince
p1250
V\u5c71\u4e1c
p1251
sVPYInitial
p1252
VYY
p1253
sVRemarkName
p1254
V\u5f20\u6708\u73cayy
p1255
sVStarFriend
p1256
I0
sVSex
p1257
I2
sVIsOwner
p1258
I0
sVHideInputBarFlag
p1259
I0
sVChatRoomId
p1260
I0
sVEncryChatRoomId
p1261
g52
sVAttrStatus
p1262
I102949
sVStatues
p1263
I0
stp1264
Rp1265
I1
bag34
(g38
g39
(dp1266
VUserName
p1267
V@6ee8f447b3d69c150134b74d2e3639eb
p1268
sVCity
p1269
V\u6d66\u4e1c\u65b0\u533a
p1270
sVSnsFlag
p1271
I17
sVDisplayName
p1272
g52
sVUniFriend
p1273
I0
sVMemberCount
p1274
I0
sVOwnerUin
p1275
I0
sVMemberList
p1276
g50
sVAlias
p1277
g52
sVPYQuanPin
p1278
Vlifuquan
p1279
sVSignature
p1280
V\u611a\u8005\u4e50\u4e8e\u6210\u4e8b  \u667a\u8005\u89c1\u4e8e\u672a\u840c
p1281
sVRemarkPYInitial
p1282
VLFQZF
p1283
sVContactFlag
p1284
I65793
sVUin
p1285
I0
sVNickName
p1286
V\u674e\u798f\u6cc9
p1287
sVAppAccountFlag
p1288
I0
sVVerifyFlag
p1289
I0
sVRemarkPYQuanPin
p1290
Vlifuquanzufang
p1291
sVHeadImgUrl
p1292
V/cgi-bin/mmwebwx-bin/webwxgeticon?seq=657362877&username=@6ee8f447b3d69c150134b74d2e3639eb&skey=@crypt_17449ad9_a9a1d041023c89b07381fe036e221b03
p1293
sVKeyWord
p1294
Vlfq
p1295
sVProvince
p1296
V\u4e0a\u6d77
p1297
sVPYInitial
p1298
VLFQ
p1299
sVRemarkName
p1300
V\u674e\u798f\u5168\uff5e\u79df\u623f
p1301
sVStarFriend
p1302
I0
sVSex
p1303
I1
sVIsOwner
p1304
I0
sVHideInputBarFlag
p1305
I0
sVChatRoomId
p1306
I0
sVEncryChatRoomId
p1307
g52
sVAttrStatus
p1308
I99383
sVStatues
p1309
I0
stp1310
Rp1311
I1
bag34
(g38
g39
(dp1312
VUserName
p1313
V@77a6e109d13090a2d949e1464d3f1225
p1314
sVCity
p1315
V\u6d4e\u5357
p1316
sVSnsFlag
p1317
I49
sVDisplayName
p1318
g52
sVUniFriend
p1319
I0
sVMemberCount
p1320
I0
sVOwnerUin
p1321
I0
sVMemberList
p1322
g50
sVAlias
p1323
g52
sVPYQuanPin
p1324
Vjiandaoshouaidehuaspanclassemojiemoji1f697span??spanclassemojiemoji26f5span?
p1325
sVSignature
p1326
V\u6316\u6e20\uff0c\u5f00\u8352\uff0c\u56e4\u4ea7\uff0c\u5e7f\u6d4e\u3002
p1327
sVRemarkPYInitial
p1328
g52
sVContactFlag
p1329
I1
sVUin
p1330
I0
sVNickName
p1331
V\u526a\u5200\u624b\u7231\u5fb7\u534e\U0001f697\U0001f681\U0001f682\u26f5\ufe0f
p1332
sVAppAccountFlag
p1333
I0
sVVerifyFlag
p1334
I0
sVRemarkPYQuanPin
p1335
g52
sVHeadImgUrl
p1336
V/cgi-bin/mmwebwx-bin/webwxgeticon?seq=648677766&username=@77a6e109d13090a2d949e1464d3f1225&skey=@crypt_17449ad9_a9a1d041023c89b07381fe036e221b03
p1337
sVKeyWord
p1338
Vxia
p1339
sVProvince
p1340
V\u5c71\u4e1c
p1341
sVPYInitial
p1342
VJDSADHSPANCLASSEMOJIEMOJI1F697SPAN??SPANCLASSEMOJIEMOJI26F5SPAN?
p1343
sVRemarkName
p1344
g52
sVStarFriend
p1345
I0
sVSex
p1346
I1
sVIsOwner
p1347
I0
sVHideInputBarFlag
p1348
I0
sVChatRoomId
p1349
I0
sVEncryChatRoomId
p1350
g52
sVAttrStatus
p1351
I104487
sVStatues
p1352
I0
stp1353
Rp1354
I1
bag34
(g38
g39
(dp1355
VUserName
p1356
V@55a10a14ef0c6b6ecdfede41647ab465338fab152a6d96023b77a9afdc70a275
p1357
sVCity
p1358
V\u6d4e\u5357
p1359
sVSnsFlag
p1360
I17
sVDisplayName
p1361
g52
sVUniFriend
p1362
I0
sVMemberCount
p1363
I0
sVOwnerUin
p1364
I0
sVMemberList
p1365
g50
sVAlias
p1366
g52
sVPYQuanPin
p1367
Vjun
p1368
sVSignature
p1369
V\u4e0e\u5176\u62c5\u5fc3\u672a\u6765\uff0c\u4e0d\u5982\u628a\u63e1\u73b0\u5728\uff0c\u7528\u594b\u6597\u7ed9\u81ea\u5df1\u6700\u5927\u7684\u5b89\u5168\u611f\u3002
p1370
sVRemarkPYInitial
p1371
g52
sVContactFlag
p1372
I1
sVUin
p1373
I0
sVNickName
p1374
V\u4fca
p1375
sVAppAccountFlag
p1376
I0
sVVerifyFlag
p1377
I0
sVRemarkPYQuanPin
p1378
g52
sVHeadImgUrl
p1379
V/cgi-bin/mmwebwx-bin/webwxgeticon?seq=657364843&username=@55a10a14ef0c6b6ecdfede41647ab465338fab152a6d96023b77a9afdc70a275&skey=@crypt_17449ad9_a9a1d041023c89b07381fe036e221b03
p1380
sVKeyWord
p1381
g52
sVProvince
p1382
V\u5c71\u4e1c
p1383
sVPYInitial
p1384
g197
sVRemarkName
p1385
g52
sVStarFriend
p1386
I0
sVSex
p1387
I2
sVIsOwner
p1388
I0
sVHideInputBarFlag
p1389
I0
sVChatRoomId
p1390
I0
sVEncryChatRoomId
p1391
g52
sVAttrStatus
p1392
I103845
sVStatues
p1393
I0
stp1394
Rp1395
I1
bag34
(g38
g39
(dp1396
VUserName
p1397
V@b1529191be443a11a9f0064d6a98ac30669401a2aa579546eda1c680cc1fd72d
p1398
sVCity
p1399
V\u6d4e\u5357
p1400
sVSnsFlag
p1401
I49
sVDisplayName
p1402
g52
sVUniFriend
p1403
I0
sVMemberCount
p1404
I0
sVOwnerUin
p1405
I0
sVMemberList
p1406
g50
sVAlias
p1407
g52
sVPYQuanPin
p1408
Vrose
p1409
sVSignature
p1410
g52
sVRemarkPYInitial
p1411
g52
sVContactFlag
p1412
I1
sVUin
p1413
I0
sVNickName
p1414
Vrose
p1415
sVAppAccountFlag
p1416
I0
sVVerifyFlag
p1417
I0
sVRemarkPYQuanPin
p1418
g52
sVHeadImgUrl
p1419
V/cgi-bin/mmwebwx-bin/webwxgeticon?seq=648687764&username=@b1529191be443a11a9f0064d6a98ac30669401a2aa579546eda1c680cc1fd72d&skey=@crypt_17449ad9_a9a1d041023c89b07381fe036e221b03
p1420
sVKeyWord
p1421
g52
sVProvince
p1422
V\u5c71\u4e1c
p1423
sVPYInitial
p1424
VROSE
p1425
sVRemarkName
p1426
g52
sVStarFriend
p1427
I0
sVSex
p1428
I2
sVIsOwner
p1429
I0
sVHideInputBarFlag
p1430
I0
sVChatRoomId
p1431
I0
sVEncryChatRoomId
p1432
g52
sVAttrStatus
p1433
I100925
sVStatues
p1434
I0
stp1435
Rp1436
I1
bag34
(g38
g39
(dp1437
VUserName
p1438
V@e0db4a063bf431ea9e5ee2d03b8ade6cdd5d04627831417c1a1269c65614b017
p1439
sVCity
p1440
V\u6f4d\u574a
p1441
sVSnsFlag
p1442
I17
sVDisplayName
p1443
g52
sVUniFriend
p1444
I0
sVMemberCount
p1445
I0
sVOwnerUin
p1446
I0
sVMemberList
p1447
g50
sVAlias
p1448
g52
sVPYQuanPin
p1449
Vzhusha
p1450
sVSignature
p1451
V\u7cbe\u795e\u75c5\u4eba\u601d\u8def\u5e7f\uff0c\u5f31\u667a\u9752\u5e74\u6b22\u4e50\u591a\u3002
p1452
sVRemarkPYInitial
p1453
g52
sVContactFlag
p1454
I1
sVUin
p1455
I0
sVNickName
p1456
V\u6731\u7802
p1457
sVAppAccountFlag
p1458
I0
sVVerifyFlag
p1459
I0
sVRemarkPYQuanPin
p1460
g52
sVHeadImgUrl
p1461
V/cgi-bin/mmwebwx-bin/webwxgeticon?seq=657365328&username=@e0db4a063bf431ea9e5ee2d03b8ade6cdd5d04627831417c1a1269c65614b017&skey=@crypt_17449ad9_a9a1d041023c89b07381fe036e221b03
p1462
sVKeyWord
p1463
g52
sVProvince
p1464
V\u5c71\u4e1c
p1465
sVPYInitial
p1466
VZS
p1467
sVRemarkName
p1468
g52
sVStarFriend
p1469
I0
sVSex
p1470
I2
sVIsOwner
p1471
I0
sVHideInputBarFlag
p1472
I0
sVChatRoomId
p1473
I0
sVEncryChatRoomId
p1474
g52
sVAttrStatus
p1475
I131125
sVStatues
p1476
I0
stp1477
Rp1478
I1
bag34
(g38
g39
(dp1479
VUserName
p1480
V@c41e27862b743bd663027b95b467795b8ec3c8055daea090f2ef17d4d6c0e589
p1481
sVCity
p1482
V\u6d4e\u5357
p1483
sVSnsFlag
p1484
I17
sVDisplayName
p1485
g52
sVUniFriend
p1486
I0
sVMemberCount
p1487
I0
sVOwnerUin
p1488
I0
sVMemberList
p1489
g50
sVAlias
p1490
g52
sVPYQuanPin
p1491
Vguojinsheng
p1492
sVSignature
p1493
V\u90ed\u91d1\u751f
p1494
sVRemarkPYInitial
p1495
VGJS
p1496
sVContactFlag
p1497
I1
sVUin
p1498
I0
sVNickName
p1499
V\u90ed\u91d1\u751f
p1500
sVAppAccountFlag
p1501
I0
sVVerifyFlag
p1502
I0
sVRemarkPYQuanPin
p1503
Vguojinsheng
p1504
sVHeadImgUrl
p1505
V/cgi-bin/mmwebwx-bin/webwxgeticon?seq=620591929&username=@c41e27862b743bd663027b95b467795b8ec3c8055daea090f2ef17d4d6c0e589&skey=@crypt_17449ad9_a9a1d041023c89b07381fe036e221b03
p1506
sVKeyWord
p1507
g52
sVProvince
p1508
V\u5c71\u4e1c
p1509
sVPYInitial
p1510
VGJS
p1511
sVRemarkName
p1512
V\u90ed\u91d1\u751f
p1513
sVStarFriend
p1514
I0
sVSex
p1515
I1
sVIsOwner
p1516
I0
sVHideInputBarFlag
p1517
I0
sVChatRoomId
p1518
I0
sVEncryChatRoomId
p1519
g52
sVAttrStatus
p1520
I169919
sVStatues
p1521
I0
stp1522
Rp1523
I1
bag34
(g38
g39
(dp1524
VUserName
p1525
V@336a01e1e6f3a93ac87c04977a820e39eef5ffa7eddd14e0809d4821d8308b4f
p1526
sVCity
p1527
g52
sVSnsFlag
p1528
I17
sVDisplayName
p1529
g52
sVUniFriend
p1530
I0
sVMemberCount
p1531
I0
sVOwnerUin
p1532
I0
sVMemberList
p1533
g50
sVAlias
p1534
g52
sVPYQuanPin
p1535
VYTTspanclassemojiemoji1f433spanweixinspanclassemojiemoji1f451spanjihuiyuan?
p1536
sVSignature
p1537
V\u4e0d\u80fd\u4f53\u8c05\uff0c\u90a3\u6839\u672c\u5c31\u662f\u4e0d\u7231\u5440\u2026\u2026
p1538
sVRemarkPYInitial
p1539
g52
sVContactFlag
p1540
I1
sVUin
p1541
I0
sVNickName
p1542
VYTT \U0001f433\u5fae\u4fe1\U0001f451 \u7ea7\u4f1a\u5458\U0001f6eb
p1543
sVAppAccountFlag
p1544
I0
sVVerifyFlag
p1545
I0
sVRemarkPYQuanPin
p1546
g52
sVHeadImgUrl
p1547
V/cgi-bin/mmwebwx-bin/webwxgeticon?seq=645561041&username=@336a01e1e6f3a93ac87c04977a820e39eef5ffa7eddd14e0809d4821d8308b4f&skey=@crypt_17449ad9_a9a1d041023c89b07381fe036e221b03
p1548
sVKeyWord
p1549
g52
sVProvince
p1550
g52
sVPYInitial
p1551
VYTTSPANCLASSEMOJIEMOJI1F433SPANWXSPANCLASSEMOJIEMOJI1F451SPANJHY?
p1552
sVRemarkName
p1553
g52
sVStarFriend
p1554
I0
sVSex
p1555
I0
sVIsOwner
p1556
I0
sVHideInputBarFlag
p1557
I0
sVChatRoomId
p1558
I0
sVEncryChatRoomId
p1559
g52
sVAttrStatus
p1560
I98341
sVStatues
p1561
I0
stp1562
Rp1563
I1
bag34
(g38
g39
(dp1564
VUserName
p1565
V@605161ba4208f7bab154c47fe026a709
p1566
sVCity
p1567
g52
sVSnsFlag
p1568
I49
sVDisplayName
p1569
g52
sVUniFriend
p1570
I0
sVMemberCount
p1571
I0
sVOwnerUin
p1572
I0
sVMemberList
p1573
g50
sVAlias
p1574
g52
sVPYQuanPin
p1575
Vguoyangspanclassemojiemoji1f429spanspanclassemojiemoji1f601spanspanclassemojiemoji1f367span
p1576
sVSignature
p1577
g52
sVRemarkPYInitial
p1578
g52
sVContactFlag
p1579
I1
sVUin
p1580
I0
sVNickName
p1581
V\u90ed\u6d0b\U0001f429\U0001f601\U0001f367
p1582
sVAppAccountFlag
p1583
I0
sVVerifyFlag
p1584
I0
sVRemarkPYQuanPin
p1585
g52
sVHeadImgUrl
p1586
V/cgi-bin/mmwebwx-bin/webwxgeticon?seq=657362246&username=@605161ba4208f7bab154c47fe026a709&skey=@crypt_17449ad9_a9a1d041023c89b07381fe036e221b03
p1587
sVKeyWord
p1588
Vguo
p1589
sVProvince
p1590
g52
sVPYInitial
p1591
VGYSPANCLASSEMOJIEMOJI1F429SPANSPANCLASSEMOJIEMOJI1F601SPANSPANCLASSEMOJIEMOJI1F367SPAN
p1592
sVRemarkName
p1593
g52
sVStarFriend
p1594
I0
sVSex
p1595
I2
sVIsOwner
p1596
I0
sVHideInputBarFlag
p1597
I0
sVChatRoomId
p1598
I0
sVEncryChatRoomId
p1599
g52
sVAttrStatus
p1600
I104487
sVStatues
p1601
I0
stp1602
Rp1603
I1
bag34
(g38
g39
(dp1604
VUserName
p1605
V@700e4d90f6151a8ca5fd8420c998d695453e6d03d31a919c4ef4e6d8d6a1ee28
p1606
sVCity
p1607
V\u6d4e\u5357
p1608
sVSnsFlag
p1609
I49
sVDisplayName
p1610
g52
sVUniFriend
p1611
I0
sVMemberCount
p1612
I0
sVOwnerUin
p1613
I0
sVMemberList
p1614
g50
sVAlias
p1615
g52
sVPYQuanPin
p1616
Vniuhao
p1617
sVSignature
p1618
g52
sVRemarkPYInitial
p1619
g52
sVContactFlag
p1620
I1
sVUin
p1621
I0
sVNickName
p1622
V\u725b\u6d69
p1623
sVAppAccountFlag
p1624
I0
sVVerifyFlag
p1625
I0
sVRemarkPYQuanPin
p1626
g52
sVHeadImgUrl
p1627
V/cgi-bin/mmwebwx-bin/webwxgeticon?seq=657365630&username=@700e4d90f6151a8ca5fd8420c998d695453e6d03d31a919c4ef4e6d8d6a1ee28&skey=@crypt_17449ad9_a9a1d041023c89b07381fe036e221b03
p1628
sVKeyWord
p1629
g52
sVProvince
p1630
V\u5c71\u4e1c
p1631
sVPYInitial
p1632
VNH
p1633
sVRemarkName
p1634
g52
sVStarFriend
p1635
I0
sVSex
p1636
I1
sVIsOwner
p1637
I0
sVHideInputBarFlag
p1638
I0
sVChatRoomId
p1639
I0
sVEncryChatRoomId
p1640
g52
sVAttrStatus
p1641
I103525
sVStatues
p1642
I0
stp1643
Rp1644
I1
bag34
(g38
g39
(dp1645
VUserName
p1646
V@06d3d12a587c316f1326e0918e84c299
p1647
sVCity
p1648
g52
sVSnsFlag
p1649
I49
sVDisplayName
p1650
g52
sVUniFriend
p1651
I0
sVMemberCount
p1652
I0
sVOwnerUin
p1653
I0
sVMemberList
p1654
g50
sVAlias
p1655
g52
sVPYQuanPin
p1656
Vertongyuedoutuiguangrenchenyuexin
p1657
sVSignature
p1658
V\u5b69\u5b50\u7684\u6210\u529f\u53d6\u51b3\u4e8e\u4ece\u5c0f\u966aTA\u8bfb\u4e66\u7684\u4eba\u000a\u81ea\u6740\u91cd\u751f \u4ed6\u6740\u6dd8\u6c70
p1659
sVRemarkPYInitial
p1660
g52
sVContactFlag
p1661
I1
sVUin
p1662
I0
sVNickName
p1663
V\u513f\u7ae5\u9605\u8bfb\u63a8\u5e7f\u4eba\u9648\u6708\u65b0
p1664
sVAppAccountFlag
p1665
I0
sVVerifyFlag
p1666
I0
sVRemarkPYQuanPin
p1667
g52
sVHeadImgUrl
p1668
V/cgi-bin/mmwebwx-bin/webwxgeticon?seq=657363909&username=@06d3d12a587c316f1326e0918e84c299&skey=@crypt_17449ad9_a9a1d041023c89b07381fe036e221b03
p1669
sVKeyWord
p1670
Vche
p1671
sVProvince
p1672
V\u5c71\u4e1c
p1673
sVPYInitial
p1674
VETYDTGRCYX
p1675
sVRemarkName
p1676
g52
sVStarFriend
p1677
I0
sVSex
p1678
I1
sVIsOwner
p1679
I0
sVHideInputBarFlag
p1680
I0
sVChatRoomId
p1681
I0
sVEncryChatRoomId
p1682
g52
sVAttrStatus
p1683
I4438015
sVStatues
p1684
I0
stp1685
Rp1686
I1
bag34
(g38
g39
(dp1687
VUserName
p1688
V@d079a54be4e83d0531ed82bcfdb6068b
p1689
sVCity
p1690
V\u6d4e\u5357
p1691
sVSnsFlag
p1692
I49
sVDisplayName
p1693
g52
sVUniFriend
p1694
I0
sVMemberCount
p1695
I0
sVOwnerUin
p1696
I0
sVMemberList
p1697
g50
sVAlias
p1698
g52
sVPYQuanPin
p1699
Vxingfutu
p1700
sVSignature
p1701
V\u6628\u5929\u3001\u4eca\u5929\u3001\u660e\u5929\u3001\u5929\u5929\u5e73\u5b89\u5e78\u798f\u5feb\u4e50\uff01
p1702
sVRemarkPYInitial
p1703
VXFTFH
p1704
sVContactFlag
p1705
I1
sVUin
p1706
I0
sVNickName
p1707
V\u5e78\u798f\u5154
p1708
sVAppAccountFlag
p1709
I0
sVVerifyFlag
p1710
I0
sVRemarkPYQuanPin
p1711
Vxingfutufanghui
p1712
sVHeadImgUrl
p1713
V/cgi-bin/mmwebwx-bin/webwxgeticon?seq=657361057&username=@d079a54be4e83d0531ed82bcfdb6068b&skey=@crypt_17449ad9_a9a1d041023c89b07381fe036e221b03
p1714
sVKeyWord
p1715
Vfan
p1716
sVProvince
p1717
V\u5c71\u4e1c
p1718
sVPYInitial
p1719
VXFT
p1720
sVRemarkName
p1721
V\u5e78\u798f\u5154\uff0c\u65b9\u8f89
p1722
sVStarFriend
p1723
I0
sVSex
p1724
I1
sVIsOwner
p1725
I0
sVHideInputBarFlag
p1726
I0
sVChatRoomId
p1727
I0
sVEncryChatRoomId
p1728
g52
sVAttrStatus
p1729
L2149695591L
sVStatues
p1730
I0
stp1731
Rp1732
I1
bag34
(g38
g39
(dp1733
VUserName
p1734
V@6ae7be54d9fbc9d29428ce1df02a05d0
p1735
sVCity
p1736
V\u9752\u5c9b
p1737
sVSnsFlag
p1738
I17
sVDisplayName
p1739
g52
sVUniFriend
p1740
I0
sVMemberCount
p1741
I0
sVOwnerUin
p1742
I0
sVMemberList
p1743
g50
sVAlias
p1744
g52
sVPYQuanPin
p1745
Vrebecca
p1746
sVSignature
p1747
Vrebecca
p1748
sVRemarkPYInitial
p1749
g52
sVContactFlag
p1750
I1
sVUin
p1751
I0
sVNickName
p1752
Vrebecca
p1753
sVAppAccountFlag
p1754
I0
sVVerifyFlag
p1755
I0
sVRemarkPYQuanPin
p1756
g52
sVHeadImgUrl
p1757
V/cgi-bin/mmwebwx-bin/webwxgeticon?seq=648686278&username=@6ae7be54d9fbc9d29428ce1df02a05d0&skey=@crypt_17449ad9_a9a1d041023c89b07381fe036e221b03
p1758
sVKeyWord
p1759
Vred
p1760
sVProvince
p1761
V\u5c71\u4e1c
p1762
sVPYInitial
p1763
VREBECCA
p1764
sVRemarkName
p1765
g52
sVStarFriend
p1766
I0
sVSex
p1767
I2
sVIsOwner
p1768
I0
sVHideInputBarFlag
p1769
I0
sVChatRoomId
p1770
I0
sVEncryChatRoomId
p1771
g52
sVAttrStatus
p1772
I237671
sVStatues
p1773
I0
stp1774
Rp1775
I1
bag34
(g38
g39
(dp1776
VUserName
p1777
V@7dbdbcc5431ff2402cc86c2af38ebf40ac4d35b933b3f21cf43e5a5a9d7b8e9a
p1778
sVCity
p1779
V\u6cb9\u5c16\u65fa\u533a
p1780
sVSnsFlag
p1781
I49
sVDisplayName
p1782
g52
sVUniFriend
p1783
I0
sVMemberCount
p1784
I0
sVOwnerUin
p1785
I0
sVMemberList
p1786
g50
sVAlias
p1787
g52
sVPYQuanPin
p1788
Vyukchenayou
p1789
sVSignature
p1790
g52
sVRemarkPYInitial
p1791
g52
sVContactFlag
p1792
I1
sVUin
p1793
I0
sVNickName
p1794
Vyuk\u9648\u963f\u53cb
p1795
sVAppAccountFlag
p1796
I0
sVVerifyFlag
p1797
I0
sVRemarkPYQuanPin
p1798
g52
sVHeadImgUrl
p1799
V/cgi-bin/mmwebwx-bin/webwxgeticon?seq=657366083&username=@7dbdbcc5431ff2402cc86c2af38ebf40ac4d35b933b3f21cf43e5a5a9d7b8e9a&skey=@crypt_17449ad9_a9a1d041023c89b07381fe036e221b03
p1800
sVKeyWord
p1801
g52
sVProvince
p1802
V\u9999\u6e2f
p1803
sVPYInitial
p1804
VYUKCAY
p1805
sVRemarkName
p1806
g52
sVStarFriend
p1807
I0
sVSex
p1808
I1
sVIsOwner
p1809
I0
sVHideInputBarFlag
p1810
I0
sVChatRoomId
p1811
I0
sVEncryChatRoomId
p1812
g52
sVAttrStatus
p1813
I33624101
sVStatues
p1814
I0
stp1815
Rp1816
I1
bag34
(g38
g39
(dp1817
VUserName
p1818
V@9c23cc820257d7b1d764708f1c4a7bf04c57ad18ae844285accf76496a89f575
p1819
sVCity
p1820
V\u671d\u9633
p1821
sVSnsFlag
p1822
I49
sVDisplayName
p1823
g52
sVUniFriend
p1824
I0
sVMemberCount
p1825
I0
sVOwnerUin
p1826
I0
sVMemberList
p1827
g50
sVAlias
p1828
g52
sVPYQuanPin
p1829
Vbingkuai
p1830
sVSignature
p1831
V\u5929\u9053\u65e0\u5e38\uff0c\u5e38\u4e0e\u5584\u4eba
p1832
sVRemarkPYInitial
p1833
VGC
p1834
sVContactFlag
p1835
I1
sVUin
p1836
I0
sVNickName
p1837
V\u51b0\u5757\uff01
p1838
sVAppAccountFlag
p1839
I0
sVVerifyFlag
p1840
I0
sVRemarkPYQuanPin
p1841
Vgaochuan
p1842
sVHeadImgUrl
p1843
V/cgi-bin/mmwebwx-bin/webwxgeticon?seq=648686042&username=@9c23cc820257d7b1d764708f1c4a7bf04c57ad18ae844285accf76496a89f575&skey=@crypt_17449ad9_a9a1d041023c89b07381fe036e221b03
p1844
sVKeyWord
p1845
g52
sVProvince
p1846
V\u5317\u4eac
p1847
sVPYInitial
p1848
VBK
p1849
sVRemarkName
p1850
V\u9ad8\u5ddd
p1851
sVStarFriend
p1852
I0
sVSex
p1853
I1
sVIsOwner
p1854
I0
sVHideInputBarFlag
p1855
I0
sVChatRoomId
p1856
I0
sVEncryChatRoomId
p1857
g52
sVAttrStatus
p1858
I67711
sVStatues
p1859
I0
stp1860
Rp1861
I1
bag34
(g38
g39
(dp1862
VUserName
p1863
V@4245111acd42e85cb89f3d270bf0dee3
p1864
sVCity
p1865
V\u6d4e\u5357
p1866
sVSnsFlag
p1867
I49
sVDisplayName
p1868
g52
sVUniFriend
p1869
I0
sVMemberCount
p1870
I0
sVOwnerUin
p1871
I0
sVMemberList
p1872
g50
sVAlias
p1873
g52
sVPYQuanPin
p1874
VDexter
p1875
sVSignature
p1876
V\u522b\u62ff\u5927\u8bcd\u513f\u8499\u6211\uff0c\u8001\u5b50\u4e0d\u4fe1
p1877
sVRemarkPYInitial
p1878
VDJY
p1879
sVContactFlag
p1880
I257
sVUin
p1881
I0
sVNickName
p1882
VDexter
p1883
sVAppAccountFlag
p1884
I0
sVVerifyFlag
p1885
I0
sVRemarkPYQuanPin
p1886
Vdingjingyi
p1887
sVHeadImgUrl
p1888
V/cgi-bin/mmwebwx-bin/webwxgeticon?seq=657366100&username=@4245111acd42e85cb89f3d270bf0dee3&skey=@crypt_17449ad9_a9a1d041023c89b07381fe036e221b03
p1889
sVKeyWord
p1890
Vyiy
p1891
sVProvince
p1892
V\u5c71\u4e1c
p1893
sVPYInitial
p1894
VDEXTER
p1895
sVRemarkName
p1896
V\u4e01\u656c\u4e00
p1897
sVStarFriend
p1898
I0
sVSex
p1899
I1
sVIsOwner
p1900
I0
sVHideInputBarFlag
p1901
I0
sVChatRoomId
p1902
I0
sVEncryChatRoomId
p1903
g52
sVAttrStatus
p1904
I106599
sVStatues
p1905
I0
stp1906
Rp1907
I1
bag34
(g38
g39
(dp1908
VUserName
p1909
V@a7747bf02c245836f0faebd5a40498b6
p1910
sVCity
p1911
V\u6d4e\u5357
p1912
sVSnsFlag
p1913
I49
sVDisplayName
p1914
g52
sVUniFriend
p1915
I0
sVMemberCount
p1916
I0
sVOwnerUin
p1917
I0
sVMemberList
p1918
g50
sVAlias
p1919
g52
sVPYQuanPin
p1920
V?bingbing
p1921
sVSignature
p1922
g52
sVRemarkPYInitial
p1923
VTB
p1924
sVContactFlag
p1925
I1
sVUin
p1926
I0
sVNickName
p1927
V\u0950\u51b0\u51b0
p1928
sVAppAccountFlag
p1929
I0
sVVerifyFlag
p1930
I0
sVRemarkPYQuanPin
p1931
Vtianbing
p1932
sVHeadImgUrl
p1933
V/cgi-bin/mmwebwx-bin/webwxgeticon?seq=640370056&username=@a7747bf02c245836f0faebd5a40498b6&skey=@crypt_17449ad9_a9a1d041023c89b07381fe036e221b03
p1934
sVKeyWord
p1935
Vq66
p1936
sVProvince
p1937
V\u5c71\u4e1c
p1938
sVPYInitial
p1939
V?BB
p1940
sVRemarkName
p1941
V\u7530\u51b0
p1942
sVStarFriend
p1943
I0
sVSex
p1944
I2
sVIsOwner
p1945
I0
sVHideInputBarFlag
p1946
I0
sVChatRoomId
p1947
I0
sVEncryChatRoomId
p1948
g52
sVAttrStatus
p1949
L2147584127L
sVStatues
p1950
I0
stp1951
Rp1952
I1
bag34
(g38
g39
(dp1953
VUserName
p1954
V@27ef891c60dcc361cc77d49e840858b52a6a91b9ded4f94e0a6469625b7d6744
p1955
sVCity
p1956
V\u65e0\u9521
p1957
sVSnsFlag
p1958
I17
sVDisplayName
p1959
g52
sVUniFriend
p1960
I0
sVMemberCount
p1961
I0
sVOwnerUin
p1962
I0
sVMemberList
p1963
g50
sVAlias
p1964
g52
sVPYQuanPin
p1965
Vfuqiumingtiankuandeguang
p1966
sVSignature
p1967
V\u5929\u5bbd\u5730\u5e7f
p1968
sVRemarkPYInitial
p1969
g52
sVContactFlag
p1970
I1
sVUin
p1971
I0
sVNickName
p1972
V\u5085\u79cb\u660e   \u5929\u5bbd\u5730\u5e7f
p1973
sVAppAccountFlag
p1974
I0
sVVerifyFlag
p1975
I0
sVRemarkPYQuanPin
p1976
g52
sVHeadImgUrl
p1977
V/cgi-bin/mmwebwx-bin/webwxgeticon?seq=648686427&username=@27ef891c60dcc361cc77d49e840858b52a6a91b9ded4f94e0a6469625b7d6744&skey=@crypt_17449ad9_a9a1d041023c89b07381fe036e221b03
p1978
sVKeyWord
p1979
g52
sVProvince
p1980
V\u6c5f\u82cf
p1981
sVPYInitial
p1982
VFQMTKDG
p1983
sVRemarkName
p1984
g52
sVStarFriend
p1985
I0
sVSex
p1986
I1
sVIsOwner
p1987
I0
sVHideInputBarFlag
p1988
I0
sVChatRoomId
p1989
I0
sVEncryChatRoomId
p1990
g52
sVAttrStatus
p1991
I16843365
sVStatues
p1992
I0
stp1993
Rp1994
I1
bag34
(g38
g39
(dp1995
VUserName
p1996
V@3cad806742f8051f85d82d2a31c4360d7d8973ac6befa3d40f4a673eae0ab134
p1997
sVCity
p1998
V\u6d4e\u5357
p1999
sVSnsFlag
p2000
I49
sVDisplayName
p2001
g52
sVUniFriend
p2002
I0
sVMemberCount
p2003
I0
sVOwnerUin
p2004
I0
sVMemberList
p2005
g50
sVAlias
p2006
g52
sVPYQuanPin
p2007
Vsanpantaxiaomi
p2008
sVSignature
p2009
V\u7b11\u770b\u98ce\u4e91\u6de1\uff0c\u5750\u5bf9\u4e91\u8d77\u65f6\u3002
p2010
sVRemarkPYInitial
p2011
g52
sVContactFlag
p2012
I1
sVUin
p2013
I0
sVNickName
p2014
V\u4e09\u80d6\u5979\u5c0f\u871c
p2015
sVAppAccountFlag
p2016
I0
sVVerifyFlag
p2017
I0
sVRemarkPYQuanPin
p2018
g52
sVHeadImgUrl
p2019
V/cgi-bin/mmwebwx-bin/webwxgeticon?seq=657366329&username=@3cad806742f8051f85d82d2a31c4360d7d8973ac6befa3d40f4a673eae0ab134&skey=@crypt_17449ad9_a9a1d041023c89b07381fe036e221b03
p2020
sVKeyWord
p2021
g52
sVProvince
p2022
V\u5c71\u4e1c
p2023
sVPYInitial
p2024
VSPTXM
p2025
sVRemarkName
p2026
g52
sVStarFriend
p2027
I0
sVSex
p2028
I2
sVIsOwner
p2029
I0
sVHideInputBarFlag
p2030
I0
sVChatRoomId
p2031
I0
sVEncryChatRoomId
p2032
g52
sVAttrStatus
p2033
L2147720637L
sVStatues
p2034
I0
stp2035
Rp2036
I1
bag34
(g38
g39
(dp2037
VUserName
p2038
V@e9ab0cb81bc3f779db264205f476da66
p2039
sVCity
p2040
V\u6d4e\u5357
p2041
sVSnsFlag
p2042
I17
sVDisplayName
p2043
g52
sVUniFriend
p2044
I0
sVMemberCount
p2045
I0
sVOwnerUin
p2046
I0
sVMemberList
p2047
g50
sVAlias
p2048
g52
sVPYQuanPin
p2049
Vhuiseguiji
p2050
sVSignature
p2051
g52
sVRemarkPYInitial
p2052
VCLZF
p2053
sVContactFlag
p2054
I65793
sVUin
p2055
I0
sVNickName
p2056
V\u7070\u8272\u8f68\u8ff9
p2057
sVAppAccountFlag
p2058
I0
sVVerifyFlag
p2059
I0
sVRemarkPYQuanPin
p2060
Vchengliangzufang
p2061
sVHeadImgUrl
p2062
V/cgi-bin/mmwebwx-bin/webwxgeticon?seq=657366335&username=@e9ab0cb81bc3f779db264205f476da66&skey=@crypt_17449ad9_a9a1d041023c89b07381fe036e221b03
p2063
sVKeyWord
p2064
VY_o
p2065
sVProvince
p2066
V\u5c71\u4e1c
p2067
sVPYInitial
p2068
VHSGJ
p2069
sVRemarkName
p2070
V\u7a0b\u4eae\uff1a\u79df\u623f
p2071
sVStarFriend
p2072
I0
sVSex
p2073
I1
sVIsOwner
p2074
I0
sVHideInputBarFlag
p2075
I0
sVChatRoomId
p2076
I0
sVEncryChatRoomId
p2077
g52
sVAttrStatus
p2078
L2147586087L
sVStatues
p2079
I0
stp2080
Rp2081
I1
bag34
(g38
g39
(dp2082
VUserName
p2083
V@8315d5cefcf7262aa8f6175955d999b24922c53b702737acd3f18e69ddb8fa51
p2084
sVCity
p2085
V\u6d4e\u5357
p2086
sVSnsFlag
p2087
I49
sVDisplayName
p2088
g52
sVUniFriend
p2089
I0
sVMemberCount
p2090
I0
sVOwnerUin
p2091
I0
sVMemberList
p2092
g50
sVAlias
p2093
g52
sVPYQuanPin
p2094
Vwenwenleveretspanclassemojiemoji1f430span
p2095
sVSignature
p2096
g52
sVRemarkPYInitial
p2097
VSCWWLEVERETSPANCLASSEMOJIEMOJI1F430SPAN
p2098
sVContactFlag
p2099
I1
sVUin
p2100
I0
sVNickName
p2101
V\u7a33\u7a33leveret\U0001f430
p2102
sVAppAccountFlag
p2103
I0
sVVerifyFlag
p2104
I0
sVRemarkPYQuanPin
p2105
Vshanchenwenwenleveretspanclassemojiemoji1f430span
p2106
sVHeadImgUrl
p2107
V/cgi-bin/mmwebwx-bin/webwxgeticon?seq=657366362&username=@8315d5cefcf7262aa8f6175955d999b24922c53b702737acd3f18e69ddb8fa51&skey=@crypt_17449ad9_a9a1d041023c89b07381fe036e221b03
p2108
sVKeyWord
p2109
g52
sVProvince
p2110
V\u5c71\u4e1c
p2111
sVPYInitial
p2112
VWWLEVERETSPANCLASSEMOJIEMOJI1F430SPAN
p2113
sVRemarkName
p2114
V\u5355\u6668\uff0c\u7a33\u7a33leveret\U0001f430
p2115
sVStarFriend
p2116
I0
sVSex
p2117
I2
sVIsOwner
p2118
I0
sVHideInputBarFlag
p2119
I0
sVChatRoomId
p2120
I0
sVEncryChatRoomId
p2121
g52
sVAttrStatus
p2122
I103333
sVStatues
p2123
I0
stp2124
Rp2125
I1
bag34
(g38
g39
(dp2126
VUserName
p2127
V@5e9c8bd1e82da290ea319a9bb406e060de631001855ed7b557f310f48c120c91
p2128
sVCity
p2129
g52
sVSnsFlag
p2130
I49
sVDisplayName
p2131
g52
sVUniFriend
p2132
I0
sVMemberCount
p2133
I0
sVOwnerUin
p2134
I0
sVMemberList
p2135
g50
sVAlias
p2136
g52
sVPYQuanPin
p2137
Vdingding
p2138
sVSignature
p2139
g52
sVRemarkPYInitial
p2140
g52
sVContactFlag
p2141
I1
sVUin
p2142
I0
sVNickName
p2143
V\u4e01\u4e01
p2144
sVAppAccountFlag
p2145
I0
sVVerifyFlag
p2146
I0
sVRemarkPYQuanPin
p2147
g52
sVHeadImgUrl
p2148
V/cgi-bin/mmwebwx-bin/webwxgeticon?seq=657365765&username=@5e9c8bd1e82da290ea319a9bb406e060de631001855ed7b557f310f48c120c91&skey=@crypt_17449ad9_a9a1d041023c89b07381fe036e221b03
p2149
sVKeyWord
p2150
g52
sVProvince
p2151
g52
sVPYInitial
p2152
VDD
p2153
sVRemarkName
p2154
g52
sVStarFriend
p2155
I0
sVSex
p2156
I0
sVIsOwner
p2157
I0
sVHideInputBarFlag
p2158
I0
sVChatRoomId
p2159
I0
sVEncryChatRoomId
p2160
g52
sVAttrStatus
p2161
I98337
sVStatues
p2162
I0
stp2163
Rp2164
I1
bag34
(g38
g39
(dp2165
VUserName
p2166
V@37964e550a212f3e6785283f070dad1ae524f3a7188ddbcbaf355d0243bf34df
p2167
sVCity
p2168
V\u6d4e\u5357
p2169
sVSnsFlag
p2170
I49
sVDisplayName
p2171
g52
sVUniFriend
p2172
I0
sVMemberCount
p2173
I0
sVOwnerUin
p2174
I0
sVMemberList
p2175
g50
sVAlias
p2176
g52
sVPYQuanPin
p2177
Vhuanxibestie
p2178
sVSignature
p2179
V\u6b22\u559c\u2022besie \u505a\u54c1\u8d28 \u505a\u53e3\u7891 \u505a\u7ecf\u5178
p2180
sVRemarkPYInitial
p2181
VCLP
p2182
sVContactFlag
p2183
I65537
sVUin
p2184
I0
sVNickName
p2185
V\u6b22\u559c-bestie
p2186
sVAppAccountFlag
p2187
I0
sVVerifyFlag
p2188
I0
sVRemarkPYQuanPin
p2189
Vcaoliping
p2190
sVHeadImgUrl
p2191
V/cgi-bin/mmwebwx-bin/webwxgeticon?seq=657363788&username=@37964e550a212f3e6785283f070dad1ae524f3a7188ddbcbaf355d0243bf34df&skey=@crypt_17449ad9_a9a1d041023c89b07381fe036e221b03
p2192
sVKeyWord
p2193
g52
sVProvince
p2194
V\u5c71\u4e1c
p2195
sVPYInitial
p2196
VHXBESTIE
p2197
sVRemarkName
p2198
V\u66f9\u4e3d\u840d
p2199
sVStarFriend
p2200
I0
sVSex
p2201
I2
sVIsOwner
p2202
I0
sVHideInputBarFlag
p2203
I0
sVChatRoomId
p2204
I0
sVEncryChatRoomId
p2205
g52
sVAttrStatus
p2206
I104485
sVStatues
p2207
I0
stp2208
Rp2209
I1
bag34
(g38
g39
(dp2210
VUserName
p2211
V@7581ccb313df748c16b49edcdb71cb93019448dc74ddc44150900bf99bdb7119
p2212
sVCity
p2213
g52
sVSnsFlag
p2214
I1
sVDisplayName
p2215
g52
sVUniFriend
p2216
I0
sVMemberCount
p2217
I0
sVOwnerUin
p2218
I0
sVMemberList
p2219
g50
sVAlias
p2220
g52
sVPYQuanPin
p2221
VKEN
p2222
sVSignature
p2223
g52
sVRemarkPYInitial
p2224
g52
sVContactFlag
p2225
I1
sVUin
p2226
I0
sVNickName
p2227
VKEN
p2228
sVAppAccountFlag
p2229
I0
sVVerifyFlag
p2230
I0
sVRemarkPYQuanPin
p2231
g52
sVHeadImgUrl
p2232
V/cgi-bin/mmwebwx-bin/webwxgeticon?seq=628403182&username=@7581ccb313df748c16b49edcdb71cb93019448dc74ddc44150900bf99bdb7119&skey=@crypt_17449ad9_a9a1d041023c89b07381fe036e221b03
p2233
sVKeyWord
p2234
g52
sVProvince
p2235
g52
sVPYInitial
p2236
VKEN
p2237
sVRemarkName
p2238
g52
sVStarFriend
p2239
I0
sVSex
p2240
I0
sVIsOwner
p2241
I0
sVHideInputBarFlag
p2242
I0
sVChatRoomId
p2243
I0
sVEncryChatRoomId
p2244
g52
sVAttrStatus
p2245
I135269
sVStatues
p2246
I0
stp2247
Rp2248
I1
bag34
(g38
g39
(dp2249
VUserName
p2250
V@e2cb52fe12f58d3e06b00661d93cf6e5
p2251
sVCity
p2252
g52
sVSnsFlag
p2253
I49
sVDisplayName
p2254
g52
sVUniFriend
p2255
I0
sVMemberCount
p2256
I0
sVOwnerUin
p2257
I0
sVMemberList
p2258
g50
sVAlias
p2259
g52
sVPYQuanPin
p2260
Vspanclassemojiemoji1f4a4spanmiaolegemiaospanclassemojiemoji1f4a6span
p2261
sVSignature
p2262
V\u54ed\u7740\u5403\u8fc7\u996d\u7684\u6211 \u662f\u53ef\u4ee5\u575a\u5f3a\u6d3b\u4e0b\u53bb\u7684
p2263
sVRemarkPYInitial
p2264
V?IAMTGG
p2265
sVContactFlag
p2266
I1
sVUin
p2267
I0
sVNickName
p2268
V.. \U0001f4a4\u55b5\u4e86\u4e2a\u55b5 \U0001f4a6
p2269
sVAppAccountFlag
p2270
I0
sVVerifyFlag
p2271
I0
sVRemarkPYQuanPin
p2272
V?Iamtangguoguo
p2273
sVHeadImgUrl
p2274
V/cgi-bin/mmwebwx-bin/webwxgeticon?seq=657366253&username=@e2cb52fe12f58d3e06b00661d93cf6e5&skey=@crypt_17449ad9_a9a1d041023c89b07381fe036e221b03
p2275
sVKeyWord
p2276
Vxia
p2277
sVProvince
p2278
g52
sVPYInitial
p2279
VSPANCLASSEMOJIEMOJI1F4A4SPANMLGMSPANCLASSEMOJIEMOJI1F4A6SPAN
p2280
sVRemarkName
p2281
V\U0001f36dI.am\u7cd6\u679c\u679c
p2282
sVStarFriend
p2283
I0
sVSex
p2284
I2
sVIsOwner
p2285
I0
sVHideInputBarFlag
p2286
I0
sVChatRoomId
p2287
I0
sVEncryChatRoomId
p2288
g52
sVAttrStatus
p2289
I33656311
sVStatues
p2290
I0
stp2291
Rp2292
I1
bag34
(g38
g39
(dp2293
VUserName
p2294
V@4bc650829ceb9f66d1c7b4e26f8a148e44379629ea746087fa0516cf09b7a1ad
p2295
sVCity
p2296
V\u6d4e\u5357
p2297
sVSnsFlag
p2298
I49
sVDisplayName
p2299
g52
sVUniFriend
p2300
I0
sVMemberCount
p2301
I0
sVOwnerUin
p2302
I0
sVMemberList
p2303
g50
sVAlias
p2304
g52
sVPYQuanPin
p2305
Vspanclassemojiemoji1f451spanTracy
p2306
sVSignature
p2307
V\u6625\u98ce\u5341\u91cc\u4e0d\u5982\u4f60
p2308
sVRemarkPYInitial
p2309
VHYSPANCLASSEMOJIEMOJI1F451SPANTRACY
p2310
sVContactFlag
p2311
I1
sVUin
p2312
I0
sVNickName
p2313
V\U0001f451Tracy
p2314
sVAppAccountFlag
p2315
I0
sVVerifyFlag
p2316
I0
sVRemarkPYQuanPin
p2317
Vhanyingspanclassemojiemoji1f451spanTracy
p2318
sVHeadImgUrl
p2319
V/cgi-bin/mmwebwx-bin/webwxgeticon?seq=657366598&username=@4bc650829ceb9f66d1c7b4e26f8a148e44379629ea746087fa0516cf09b7a1ad&skey=@crypt_17449ad9_a9a1d041023c89b07381fe036e221b03
p2320
sVKeyWord
p2321
g52
sVProvince
p2322
V\u5c71\u4e1c
p2323
sVPYInitial
p2324
VSPANCLASSEMOJIEMOJI1F451SPANTRACY
p2325
sVRemarkName
p2326
V\u97e9\u8fce\U0001f451Tracy
p2327
sVStarFriend
p2328
I0
sVSex
p2329
I2
sVIsOwner
p2330
I0
sVHideInputBarFlag
p2331
I0
sVChatRoomId
p2332
I0
sVEncryChatRoomId
p2333
g52
sVAttrStatus
p2334
I101409
sVStatues
p2335
I0
stp2336
Rp2337
I1
bag34
(g38
g39
(dp2338
VUserName
p2339
V@61c68959942f7f51ecbb11e863644c500c86e6e94a8cb8645d476a902b228148
p2340
sVCity
p2341
V\u6d4e\u5357
p2342
sVSnsFlag
p2343
I17
sVDisplayName
p2344
g52
sVUniFriend
p2345
I0
sVMemberCount
p2346
I0
sVOwnerUin
p2347
I0
sVMemberList
p2348
g50
sVAlias
p2349
g52
sVPYQuanPin
p2350
Vxuxiaojianyuenongdao
p2351
sVSignature
p2352
V\u613f\u5929\u4e0b\u767e\u59d3\u4e50\u4e3a\u519c\u4e1a\uff0c\u4e50\u5b88\u519c\u9053\uff01
p2353
sVRemarkPYInitial
p2354
g52
sVContactFlag
p2355
I1
sVUin
p2356
I0
sVNickName
p2357
V\u5f90\u6548\u5efa \u4e50\u519c\u9053
p2358
sVAppAccountFlag
p2359
I0
sVVerifyFlag
p2360
I0
sVRemarkPYQuanPin
p2361
g52
sVHeadImgUrl
p2362
V/cgi-bin/mmwebwx-bin/webwxgeticon?seq=628401739&username=@61c68959942f7f51ecbb11e863644c500c86e6e94a8cb8645d476a902b228148&skey=@crypt_17449ad9_a9a1d041023c89b07381fe036e221b03
p2363
sVKeyWord
p2364
g52
sVProvince
p2365
V\u5c71\u4e1c
p2366
sVPYInitial
p2367
VXXJYND
p2368
sVRemarkName
p2369
g52
sVStarFriend
p2370
I0
sVSex
p2371
I1
sVIsOwner
p2372
I0
sVHideInputBarFlag
p2373
I0
sVChatRoomId
p2374
I0
sVEncryChatRoomId
p2375
g52
sVAttrStatus
p2376
I4133
sVStatues
p2377
I0
stp2378
Rp2379
I1
bag34
(g38
g39
(dp2380
VUserName
p2381
V@b219a6e1d6eb90f1f1fbf1710a5ce7fd
p2382
sVCity
p2383
g52
sVSnsFlag
p2384
I49
sVDisplayName
p2385
g52
sVUniFriend
p2386
I0
sVMemberCount
p2387
I0
sVOwnerUin
p2388
I0
sVMemberList
p2389
g50
sVAlias
p2390
g52
sVPYQuanPin
p2391
Vlaki
p2392
sVSignature
p2393
V\u767e\u672f\u4e0d\u5982\u4e00\u8bda
p2394
sVRemarkPYInitial
p2395
VLGYLAKI
p2396
sVContactFlag
p2397
I65537
sVUin
p2398
I0
sVNickName
p2399
Vlaki
p2400
sVAppAccountFlag
p2401
I0
sVVerifyFlag
p2402
I0
sVRemarkPYQuanPin
p2403
Vliguangyuanlaki
p2404
sVHeadImgUrl
p2405
V/cgi-bin/mmwebwx-bin/webwxgeticon?seq=648670548&username=@b219a6e1d6eb90f1f1fbf1710a5ce7fd&skey=@crypt_17449ad9_a9a1d041023c89b07381fe036e221b03
p2406
sVKeyWord
p2407
Vuuh
p2408
sVProvince
p2409
V\u5c71\u4e1c
p2410
sVPYInitial
p2411
VLAKI
p2412
sVRemarkName
p2413
V\u674e\u5e7f\u6e0alaki
p2414
sVStarFriend
p2415
I0
sVSex
p2416
I1
sVIsOwner
p2417
I0
sVHideInputBarFlag
p2418
I0
sVChatRoomId
p2419
I0
sVEncryChatRoomId
p2420
g52
sVAttrStatus
p2421
I232635
sVStatues
p2422
I0
stp2423
Rp2424
I1
bag34
(g38
g39
(dp2425
VUserName
p2426
V@e8edbf35aafc46ccbd4e09bbe1252232
p2427
sVCity
p2428
V\u4e1c\u8425
p2429
sVSnsFlag
p2430
I49
sVDisplayName
p2431
g52
sVUniFriend
p2432
I0
sVMemberCount
p2433
I0
sVOwnerUin
p2434
I0
sVMemberList
p2435
g50
sVAlias
p2436
g52
sVPYQuanPin
p2437
Vwanwanspanclassemojiemoji1f340span
p2438
sVSignature
p2439
V\u505a\u5f7c\u6b64\u7684\u9633\u5149
p2440
sVRemarkPYInitial
p2441
VOX
p2442
sVContactFlag
p2443
I1
sVUin
p2444
I0
sVNickName
p2445
V\u5f2f\u5f2f\U0001f340
p2446
sVAppAccountFlag
p2447
I0
sVVerifyFlag
p2448
I0
sVRemarkPYQuanPin
p2449
Vouxu
p2450
sVHeadImgUrl
p2451
V/cgi-bin/mmwebwx-bin/webwxgeticon?seq=648687339&username=@e8edbf35aafc46ccbd4e09bbe1252232&skey=@crypt_17449ad9_a9a1d041023c89b07381fe036e221b03
p2452
sVKeyWord
p2453
Vqq4
p2454
sVProvince
p2455
V\u5c71\u4e1c
p2456
sVPYInitial
p2457
VWWSPANCLASSEMOJIEMOJI1F340SPAN
p2458
sVRemarkName
p2459
V\u533a\u65ed
p2460
sVStarFriend
p2461
I0
sVSex
p2462
I2
sVIsOwner
p2463
I0
sVHideInputBarFlag
p2464
I0
sVChatRoomId
p2465
I0
sVEncryChatRoomId
p2466
g52
sVAttrStatus
p2467
I114431
sVStatues
p2468
I0
stp2469
Rp2470
I1
bag34
(g38
g39
(dp2471
VUserName
p2472
V@6c86497c8f134a3bb75b142d8e2e9853b1bcd52f7805832fed022f87fb83f097
p2473
sVCity
p2474
V\u6d4e\u5357
p2475
sVSnsFlag
p2476
I49
sVDisplayName
p2477
g52
sVUniFriend
p2478
I0
sVMemberCount
p2479
I0
sVOwnerUin
p2480
I0
sVMemberList
p2481
g50
sVAlias
p2482
g52
sVPYQuanPin
p2483
Vlajie
p2484
sVSignature
p2485
V\u8c01\u8bf4\u6211\u6597\u9e21\u773c\u6211\u53ea\u662f\u5c06\u89c6\u4e3a\u96c6\u4e2d\u4e8e\u4e00\u70b9\u4ee5\u6539\u53d8\u6211\u4ee5\u5f80\u5bf9\u4e8b\u7269\u7684\u770b\u6cd5
p2486
sVRemarkPYInitial
p2487
g52
sVContactFlag
p2488
I1
sVUin
p2489
I0
sVNickName
p2490
V\u62c9\u6770
p2491
sVAppAccountFlag
p2492
I0
sVVerifyFlag
p2493
I0
sVRemarkPYQuanPin
p2494
g52
sVHeadImgUrl
p2495
V/cgi-bin/mmwebwx-bin/webwxgeticon?seq=633075193&username=@6c86497c8f134a3bb75b142d8e2e9853b1bcd52f7805832fed022f87fb83f097&skey=@crypt_17449ad9_a9a1d041023c89b07381fe036e221b03
p2496
sVKeyWord
p2497
g52
sVProvince
p2498
V\u5c71\u4e1c
p2499
sVPYInitial
p2500
VLJ
p2501
sVRemarkName
p2502
g52
sVStarFriend
p2503
I0
sVSex
p2504
I1
sVIsOwner
p2505
I0
sVHideInputBarFlag
p2506
I0
sVChatRoomId
p2507
I0
sVEncryChatRoomId
p2508
g52
sVAttrStatus
p2509
I33656935
sVStatues
p2510
I0
stp2511
Rp2512
I1
bag34
(g38
g39
(dp2513
VUserName
p2514
V@fbe753640929639207294fe7b604b8761f071fa07f2d91b437696892ccfd2c4d
p2515
sVCity
p2516
V\u6d4e\u5357
p2517
sVSnsFlag
p2518
I49
sVDisplayName
p2519
g52
sVUniFriend
p2520
I0
sVMemberCount
p2521
I0
sVOwnerUin
p2522
I0
sVMemberList
p2523
g50
sVAlias
p2524
g52
sVPYQuanPin
p2525
Vspanclassemojiemoji1f4aaspanhanxige
p2526
sVSignature
p2527
g52
sVRemarkPYInitial
p2528
g52
sVContactFlag
p2529
I1
sVUin
p2530
I0
sVNickName
p2531
V\U0001f4aa \u61a8\u559c\u54e5
p2532
sVAppAccountFlag
p2533
I0
sVVerifyFlag
p2534
I0
sVRemarkPYQuanPin
p2535
g52
sVHeadImgUrl
p2536
V/cgi-bin/mmwebwx-bin/webwxgeticon?seq=648680152&username=@fbe753640929639207294fe7b604b8761f071fa07f2d91b437696892ccfd2c4d&skey=@crypt_17449ad9_a9a1d041023c89b07381fe036e221b03
p2537
sVKeyWord
p2538
g52
sVProvince
p2539
V\u5c71\u4e1c
p2540
sVPYInitial
p2541
VSPANCLASSEMOJIEMOJI1F4AASPANHXG
p2542
sVRemarkName
p2543
g52
sVStarFriend
p2544
I0
sVSex
p2545
I1
sVIsOwner
p2546
I0
sVHideInputBarFlag
p2547
I0
sVChatRoomId
p2548
I0
sVEncryChatRoomId
p2549
g52
sVAttrStatus
p2550
I229735
sVStatues
p2551
I0
stp2552
Rp2553
I1
bag34
(g38
g39
(dp2554
VUserName
p2555
V@9e6a81dd7d2f4269fcddb51c14bdc3651a65c13ca689fcb9737d1572c21e679e
p2556
sVCity
p2557
g52
sVSnsFlag
p2558
I1
sVDisplayName
p2559
g52
sVUniFriend
p2560
I0
sVMemberCount
p2561
I0
sVOwnerUin
p2562
I0
sVMemberList
p2563
g50
sVAlias
p2564
g52
sVPYQuanPin
p2565
Vyueyoukaixin
p2566
sVSignature
p2567
g52
sVRemarkPYInitial
p2568
g52
sVContactFlag
p2569
I257
sVUin
p2570
I0
sVNickName
p2571
V\u4e50\u4f18\u5f00\u5fc3
p2572
sVAppAccountFlag
p2573
I0
sVVerifyFlag
p2574
I0
sVRemarkPYQuanPin
p2575
g52
sVHeadImgUrl
p2576
V/cgi-bin/mmwebwx-bin/webwxgeticon?seq=628400496&username=@9e6a81dd7d2f4269fcddb51c14bdc3651a65c13ca689fcb9737d1572c21e679e&skey=@crypt_17449ad9_a9a1d041023c89b07381fe036e221b03
p2577
sVKeyWord
p2578
g52
sVProvince
p2579
g52
sVPYInitial
p2580
VYYKX
p2581
sVRemarkName
p2582
g52
sVStarFriend
p2583
I0
sVSex
p2584
I0
sVIsOwner
p2585
I0
sVHideInputBarFlag
p2586
I0
sVChatRoomId
p2587
I0
sVEncryChatRoomId
p2588
g52
sVAttrStatus
p2589
I135205
sVStatues
p2590
I0
stp2591
Rp2592
I1
bag34
(g38
g39
(dp2593
VUserName
p2594
V@0ac2ab973b0b47dfbf19229e299024ced38e304582e24d451f5a7fad917346c6
p2595
sVCity
p2596
g52
sVSnsFlag
p2597
I16
sVDisplayName
p2598
g52
sVUniFriend
p2599
I0
sVMemberCount
p2600
I0
sVOwnerUin
p2601
I0
sVMemberList
p2602
g50
sVAlias
p2603
g52
sVPYQuanPin
p2604
Vrenjianzhengdaoziziranranbufapengyoujuan
p2605
sVSignature
p2606
g52
sVRemarkPYInitial
p2607
g52
sVContactFlag
p2608
I1
sVUin
p2609
I0
sVNickName
p2610
V\u4eba\u95f4\u6b63\u9053\u81ea\u81ea\u7136\u7136(\u4e0d\u53d1\u670b\u53cb\u5708)
p2611
sVAppAccountFlag
p2612
I0
sVVerifyFlag
p2613
I0
sVRemarkPYQuanPin
p2614
g52
sVHeadImgUrl
p2615
V/cgi-bin/mmwebwx-bin/webwxgeticon?seq=657360622&username=@0ac2ab973b0b47dfbf19229e299024ced38e304582e24d451f5a7fad917346c6&skey=@crypt_17449ad9_a9a1d041023c89b07381fe036e221b03
p2616
sVKeyWord
p2617
g52
sVProvince
p2618
g52
sVPYInitial
p2619
VRJZDZZRRBFPYJ
p2620
sVRemarkName
p2621
g52
sVStarFriend
p2622
I0
sVSex
p2623
I0
sVIsOwner
p2624
I0
sVHideInputBarFlag
p2625
I0
sVChatRoomId
p2626
I0
sVEncryChatRoomId
p2627
g52
sVAttrStatus
p2628
I4645
sVStatues
p2629
I0
stp2630
Rp2631
I1
batp2632
Rp2633
I1
bsS'chatroomList'
p2634
g34
(g35
g36
(lp2635
g34
(citchat.storage.templates
Chatroom
p2636
g39
(dp2637
VUserName
p2638
V@@edf88f21315f17128ab371d1e9c8796df935919913e6ccf767e349c8fdc428d0
p2639
sVCity
p2640
g52
sVDisplayName
p2641
g52
sVUniFriend
p2642
I0
sS'Self'
p2643
g34
(g38
g39
(dp2644
g41
g31
sg42
g43
sg44
g43
sg45
I0
sg46
I0
sg47
g50
sg51
g52
sg53
g52
sg54
L2574261122L
sg55
I0
sg56
I0
sg57
g43
sg58
g43
sg59
g52
sg60
g52
sg61
I0
sg62
I0
sg63
I1
sg64
g43
sg65
I0
sg66
I17
sg67
I0
sg68
I0
sg69
g43
sg70
g71
sg72
I0
sg73
g74
sg75
g52
sg76
g77
sg78
I1
sg79
I0
sg80
I0
stp2645
Rp2646
I1
bsVMemberList
p2647
g34
(g35
g36
(lp2648
tp2649
Rp2650
I1
bsVPYQuanPin
p2651
V20nianjuhui
p2652
sVRemarkPYInitial
p2653
g52
sVSex
p2654
I0
sVAppAccountFlag
p2655
I0
sVVerifyFlag
p2656
I0
sVProvince
p2657
g52
sVKeyWord
p2658
g52
sVRemarkName
p2659
g52
sVPYInitial
p2660
V20NJH
p2661
sVIsOwner
p2662
I0
sVChatRoomId
p2663
I0
sVHideInputBarFlag
p2664
I0
sVEncryChatRoomId
p2665
g52
sVAttrStatus
p2666
I0
sVSnsFlag
p2667
I0
sVMemberCount
p2668
I0
sVOwnerUin
p2669
I0
sVAlias
p2670
g52
sS'IsAdmin'
p2671
NsVSignature
p2672
g52
sVContactFlag
p2673
I1
sVNickName
p2674
V20\u5e74\u805a\u4f1a
p2675
sVRemarkPYQuanPin
p2676
g52
sVHeadImgUrl
p2677
V/cgi-bin/mmwebwx-bin/webwxgetheadimg?seq=648672343&username=@@edf88f21315f17128ab371d1e9c8796df935919913e6ccf767e349c8fdc428d0&skey=@crypt_17449ad9_a9a1d041023c89b07381fe036e221b03
p2678
sVUin
p2679
I0
sVStarFriend
p2680
I0
sVStatues
p2681
I1
stp2682
Rp2683
I1
bag34
(g2636
g39
(dp2684
VUserName
p2685
V@@6af285a252c79606b9904ae018f1eaae15c77ea7a952215a1b0d6f6df93a81b2
p2686
sVCity
p2687
g52
sVDisplayName
p2688
g52
sVUniFriend
p2689
I0
sg2643
g34
(g38
g39
(dp2690
g41
g31
sg42
g43
sg44
g43
sg45
I0
sg46
I0
sg47
g50
sg51
g52
sg53
g52
sg54
L2574261122L
sg55
I0
sg56
I0
sg57
g43
sg58
g43
sg59
g52
sg60
g52
sg61
I0
sg62
I0
sg63
I1
sg64
g43
sg65
I0
sg66
I17
sg67
I0
sg68
I0
sg69
g43
sg70
g71
sg72
I0
sg73
g74
sg75
g52
sg76
g77
sg78
I1
sg79
I0
sg80
I0
stp2691
Rp2692
I1
bsVMemberList
p2693
g34
(g35
g36
(lp2694
tp2695
Rp2696
I1
bsVPYQuanPin
p2697
Vjinhuanshandongyanglaoyuan
p2698
sVRemarkPYInitial
p2699
g52
sVSex
p2700
I0
sVAppAccountFlag
p2701
I0
sVVerifyFlag
p2702
I0
sVProvince
p2703
g52
sVKeyWord
p2704
g52
sVRemarkName
p2705
g52
sVPYInitial
p2706
VJHSDYLY
p2707
sVIsOwner
p2708
I0
sVChatRoomId
p2709
I0
sVHideInputBarFlag
p2710
I0
sVEncryChatRoomId
p2711
g52
sVAttrStatus
p2712
I0
sVSnsFlag
p2713
I0
sVMemberCount
p2714
I0
sVOwnerUin
p2715
I0
sVAlias
p2716
g52
sg2671
NsVSignature
p2717
g52
sVContactFlag
p2718
I1
sVNickName
p2719
V\u91d1\u73af\u5c71\u4e1c\u517b\u8001\u9662
p2720
sVRemarkPYQuanPin
p2721
g52
sVHeadImgUrl
p2722
V/cgi-bin/mmwebwx-bin/webwxgetheadimg?seq=657362046&username=@@6af285a252c79606b9904ae018f1eaae15c77ea7a952215a1b0d6f6df93a81b2&skey=@crypt_17449ad9_a9a1d041023c89b07381fe036e221b03
p2723
sVUin
p2724
I0
sVStarFriend
p2725
I0
sVStatues
p2726
I0
stp2727
Rp2728
I1
bag34
(g2636
g39
(dp2729
VUserName
p2730
V@@bb351154e9e4292ebf509733c2405541e60cd92e213f486d638ee4c2c3d096bc
p2731
sVCity
p2732
g52
sVDisplayName
p2733
g52
sVUniFriend
p2734
I0
sg2643
g34
(g38
g39
(dp2735
g41
g31
sg42
g43
sg44
g43
sg45
I0
sg46
I0
sg47
g50
sg51
g52
sg53
g52
sg54
L2574261122L
sg55
I0
sg56
I0
sg57
g43
sg58
g43
sg59
g52
sg60
g52
sg61
I0
sg62
I0
sg63
I1
sg64
g43
sg65
I0
sg66
I17
sg67
I0
sg68
I0
sg69
g43
sg70
g71
sg72
I0
sg73
g74
sg75
g52
sg76
g77
sg78
I1
sg79
I0
sg80
I0
stp2736
Rp2737
I1
bsVMemberList
p2738
g34
(g35
g36
(lp2739
tp2740
Rp2741
I1
bsVPYQuanPin
p2742
Vjina1zhong90ji10ban
p2743
sVRemarkPYInitial
p2744
g52
sVSex
p2745
I0
sVAppAccountFlag
p2746
I0
sVVerifyFlag
p2747
I0
sVProvince
p2748
g52
sVKeyWord
p2749
g52
sVRemarkName
p2750
g52
sVPYInitial
p2751
VJN1Z90J10B
p2752
sVIsOwner
p2753
I0
sVChatRoomId
p2754
I0
sVHideInputBarFlag
p2755
I0
sVEncryChatRoomId
p2756
g52
sVAttrStatus
p2757
I0
sVSnsFlag
p2758
I0
sVMemberCount
p2759
I0
sVOwnerUin
p2760
I0
sVAlias
p2761
g52
sg2671
NsVSignature
p2762
g52
sVContactFlag
p2763
I1
sVNickName
p2764
V\u6d4e\u53571\u4e2d90\u7ea710\u73ed
p2765
sVRemarkPYQuanPin
p2766
g52
sVHeadImgUrl
p2767
V/cgi-bin/mmwebwx-bin/webwxgetheadimg?seq=633073142&username=@@bb351154e9e4292ebf509733c2405541e60cd92e213f486d638ee4c2c3d096bc&skey=@crypt_17449ad9_a9a1d041023c89b07381fe036e221b03
p2768
sVUin
p2769
I0
sVStarFriend
p2770
I0
sVStatues
p2771
I0
stp2772
Rp2773
I1
bag34
(g2636
g39
(dp2774
VUserName
p2775
V@@623d6fbb7e78a15df16bb30a40d2b6fe2193bcbc9798ab42157a7341945be36d
p2776
sVCity
p2777
g52
sVDisplayName
p2778
g52
sVUniFriend
p2779
I0
sg2643
g34
(g38
g39
(dp2780
g41
g31
sg42
g43
sg44
g43
sg45
I0
sg46
I0
sg47
g50
sg51
g52
sg53
g52
sg54
L2574261122L
sg55
I0
sg56
I0
sg57
g43
sg58
g43
sg59
g52
sg60
g52
sg61
I0
sg62
I0
sg63
I1
sg64
g43
sg65
I0
sg66
I17
sg67
I0
sg68
I0
sg69
g43
sg70
g71
sg72
I0
sg73
g74
sg75
g52
sg76
g77
sg78
I1
sg79
I0
sg80
I0
stp2781
Rp2782
I1
bsVMemberList
p2783
g34
(g35
g36
(lp2784
tp2785
Rp2786
I1
bsVPYQuanPin
p2787
V93gongguandexiaohuobanmen
p2788
sVRemarkPYInitial
p2789
g52
sVSex
p2790
I0
sVAppAccountFlag
p2791
I0
sVVerifyFlag
p2792
I0
sVProvince
p2793
g52
sVKeyWord
p2794
g52
sVRemarkName
p2795
g52
sVPYInitial
p2796
V93GGDXHBM
p2797
sVIsOwner
p2798
I0
sVChatRoomId
p2799
I0
sVHideInputBarFlag
p2800
I0
sVEncryChatRoomId
p2801
g52
sVAttrStatus
p2802
I0
sVSnsFlag
p2803
I0
sVMemberCount
p2804
I0
sVOwnerUin
p2805
I0
sVAlias
p2806
g52
sg2671
NsVSignature
p2807
g52
sVContactFlag
p2808
I1
sVNickName
p2809
V93\u5de5\u7ba1\u7684\u5c0f\u4f19\u4f34\u4eec
p2810
sVRemarkPYQuanPin
p2811
g52
sVHeadImgUrl
p2812
V/cgi-bin/mmwebwx-bin/webwxgetheadimg?seq=648678808&username=@@623d6fbb7e78a15df16bb30a40d2b6fe2193bcbc9798ab42157a7341945be36d&skey=@crypt_17449ad9_a9a1d041023c89b07381fe036e221b03
p2813
sVUin
p2814
I0
sVStarFriend
p2815
I0
sVStatues
p2816
I0
stp2817
Rp2818
I1
bag34
(g2636
g39
(dp2819
VUserName
p2820
V@@7f126e1ed540cc0301e70650cc8fa45a06564a88dd6718f06c76a21208a13bc4
p2821
sVCity
p2822
g52
sVDisplayName
p2823
g52
sVUniFriend
p2824
I0
sg2643
g34
(g38
g39
(dp2825
g41
g31
sg42
g43
sg44
g43
sg45
I0
sg46
I0
sg47
g50
sg51
g52
sg53
g52
sg54
L2574261122L
sg55
I0
sg56
I0
sg57
g43
sg58
g43
sg59
g52
sg60
g52
sg61
I0
sg62
I0
sg63
I1
sg64
g43
sg65
I0
sg66
I17
sg67
I0
sg68
I0
sg69
g43
sg70
g71
sg72
I0
sg73
g74
sg75
g52
sg76
g77
sg78
I1
sg79
I0
sg80
I0
stp2826
Rp2827
I1
bsVMemberList
p2828
g34
(g35
g36
(lp2829
tp2830
Rp2831
I1
bsVPYQuanPin
p2832
Vlaodingjiaspanclassemojiemoji1f389spanspanclassemojiemoji1f3e1span
p2833
sVRemarkPYInitial
p2834
g52
sVSex
p2835
I0
sVAppAccountFlag
p2836
I0
sVVerifyFlag
p2837
I0
sVProvince
p2838
g52
sVKeyWord
p2839
g52
sVRemarkName
p2840
g52
sVPYInitial
p2841
VLDJSPANCLASSEMOJIEMOJI1F389SPANSPANCLASSEMOJIEMOJI1F3E1SPAN
p2842
sVIsOwner
p2843
I0
sVChatRoomId
p2844
I0
sVHideInputBarFlag
p2845
I0
sVEncryChatRoomId
p2846
g52
sVAttrStatus
p2847
I0
sVSnsFlag
p2848
I0
sVMemberCount
p2849
I0
sVOwnerUin
p2850
I0
sVAlias
p2851
g52
sg2671
NsVSignature
p2852
g52
sVContactFlag
p2853
I1
sVNickName
p2854
V\u8001\u4e01\u5bb6\U0001f389\U0001f3e1
p2855
sVRemarkPYQuanPin
p2856
g52
sVHeadImgUrl
p2857
V/cgi-bin/mmwebwx-bin/webwxgetheadimg?seq=648679753&username=@@7f126e1ed540cc0301e70650cc8fa45a06564a88dd6718f06c76a21208a13bc4&skey=@crypt_17449ad9_a9a1d041023c89b07381fe036e221b03
p2858
sVUin
p2859
I0
sVStarFriend
p2860
I0
sVStatues
p2861
I0
stp2862
Rp2863
I1
batp2864
Rp2865
I1
bsS'nickName'
p2866
g74
sS'mpList'
p2867
g34
(g35
g36
(lp2868
g34
(citchat.storage.templates
MassivePlatform
p2869
g39
(dp2870
VUserName
p2871
V@25afe1ea41cfc453ac2bda7a09a91136
p2872
sVCity
p2873
V\u4e1c\u57ce
p2874
sVSnsFlag
p2875
I0
sVDisplayName
p2876
g52
sVUniFriend
p2877
I0
sVMemberCount
p2878
I0
sVOwnerUin
p2879
I0
sVMemberList
p2880
g50
sVAlias
p2881
g52
sVPYQuanPin
p2882
Vgusheou
p2883
sVSignature
p2884
V 
p2885
sVRemarkPYInitial
p2886
g52
sVContactFlag
p2887
I3
sVUin
p2888
I0
sVNickName
p2889
V\u80a1\u793e\u533a
p2890
sVAppAccountFlag
p2891
I0
sVVerifyFlag
p2892
I8
sVRemarkPYQuanPin
p2893
g52
sVHeadImgUrl
p2894
V/cgi-bin/mmwebwx-bin/webwxgeticon?seq=635801285&username=@25afe1ea41cfc453ac2bda7a09a91136&skey=@crypt_17449ad9_a9a1d041023c89b07381fe036e221b03
p2895
sVKeyWord
p2896
Vgh_
p2897
sVProvince
p2898
V\u5317\u4eac
p2899
sVPYInitial
p2900
VGSO
p2901
sVRemarkName
p2902
g52
sVStarFriend
p2903
I0
sVSex
p2904
I0
sVIsOwner
p2905
I0
sVHideInputBarFlag
p2906
I0
sVChatRoomId
p2907
I0
sVEncryChatRoomId
p2908
g52
sVAttrStatus
p2909
I0
sVStatues
p2910
I0
stp2911
Rp2912
I1
bag34
(g2869
g39
(dp2913
VUserName
p2914
V@907a5f13b859b3d5a423f2dcb82744a4
p2915
sVCity
p2916
V\u4e1c\u57ce
p2917
sVSnsFlag
p2918
I0
sVDisplayName
p2919
g52
sVUniFriend
p2920
I0
sVMemberCount
p2921
I0
sVOwnerUin
p2922
I0
sVMemberList
p2923
g50
sVAlias
p2924
g52
sVPYQuanPin
p2925
Vjisailu
p2926
sVSignature
p2927
V\u4f4e\u98ce\u9669\u7406\u8d22\u793e\u533a\u3002
p2928
sVRemarkPYInitial
p2929
g52
sVContactFlag
p2930
I3
sVUin
p2931
I0
sVNickName
p2932
V\u96c6\u601d\u5f55
p2933
sVAppAccountFlag
p2934
I0
sVVerifyFlag
p2935
I24
sVRemarkPYQuanPin
p2936
g52
sVHeadImgUrl
p2937
V/cgi-bin/mmwebwx-bin/webwxgeticon?seq=622070077&username=@907a5f13b859b3d5a423f2dcb82744a4&skey=@crypt_17449ad9_a9a1d041023c89b07381fe036e221b03
p2938
sVKeyWord
p2939
Vgh_
p2940
sVProvince
p2941
V\u5317\u4eac
p2942
sVPYInitial
p2943
VJSL
p2944
sVRemarkName
p2945
g52
sVStarFriend
p2946
I0
sVSex
p2947
I0
sVIsOwner
p2948
I0
sVHideInputBarFlag
p2949
I0
sVChatRoomId
p2950
I0
sVEncryChatRoomId
p2951
g52
sVAttrStatus
p2952
I0
sVStatues
p2953
I0
stp2954
Rp2955
I1
bag34
(g2869
g39
(dp2956
VUserName
p2957
V@fad0bac35fb1301fb53e6ffc4024e110
p2958
sVCity
p2959
V\u6d4e\u5357
p2960
sVSnsFlag
p2961
I0
sVDisplayName
p2962
g52
sVUniFriend
p2963
I0
sVMemberCount
p2964
I0
sVOwnerUin
p2965
I0
sVMemberList
p2966
g50
sVAlias
p2967
g52
sVPYQuanPin
p2968
Vlujinbi
p2969
sVSignature
p2970
V\u672c\u516c\u4f17\u53f7\u7b2c\u4e00\u65f6\u95f4\u6536\u96c6\u4e0e\u5206\u4eab\u5404\u79cd\u9760\u8c31\u7f8a\u6bdb\u3001\u514d\u8d39\u798f\u5229\uff0c\u7ea2\u5305\u5361\u5238\u3001\u8d2d\u7269\u4f18\u60e0\u5238\uff0c\u8bdd\u8d39\u5145\u503c\u5238\uff0c\u7f8e\u98df\u4f18\u60e0\u5238\uff0c\u6ef4\u6ef4\u6253\u8f66\u5238\u7b49\u5404\u79cd\u6709\u5956\u798f\u5229\u6d3b\u52a8\uff1b\u5e76\u53d1\u5e03\u9646\u91d1\u6240\u6700\u65b0\u6d3b\u52a8\uff0c\u65b0\u624b\u6307\u5bfc\uff0c\u9879\u76ee\u89e3\u8bfb\uff0c\u6295\u8d44\u7b56\u7565\uff0c\u6295\u8d44\u6280\u5de7\uff0c\u6295\u8d44\u5fc3\u5f97\u7b49\u4fe1\u606f\uff1b\u5173\u6ce8\u64b8\u91d1\u5e01\uff0c\u8d22\u5bcc\u64b8\u8d77\u6765\uff01
p2971
sVRemarkPYInitial
p2972
g52
sVContactFlag
p2973
I3
sVUin
p2974
I0
sVNickName
p2975
V\u64b8\u91d1\u5e01
p2976
sVAppAccountFlag
p2977
I0
sVVerifyFlag
p2978
I8
sVRemarkPYQuanPin
p2979
g52
sVHeadImgUrl
p2980
V/cgi-bin/mmwebwx-bin/webwxgeticon?seq=648676365&username=@fad0bac35fb1301fb53e6ffc4024e110&skey=@crypt_17449ad9_a9a1d041023c89b07381fe036e221b03
p2981
sVKeyWord
p2982
Vgh_
p2983
sVProvince
p2984
V\u5c71\u4e1c
p2985
sVPYInitial
p2986
VLJB
p2987
sVRemarkName
p2988
g52
sVStarFriend
p2989
I0
sVSex
p2990
I0
sVIsOwner
p2991
I0
sVHideInputBarFlag
p2992
I0
sVChatRoomId
p2993
I0
sVEncryChatRoomId
p2994
g52
sVAttrStatus
p2995
I0
sVStatues
p2996
I0
stp2997
Rp2998
I1
bag34
(g2869
g39
(dp2999
VUserName
p3000
V@cc1305e7b94dcfae69d33adf39622a83
p3001
sVCity
p3002
V\u5e7f\u5dde
p3003
sVSnsFlag
p3004
I0
sVDisplayName
p3005
g52
sVUniFriend
p3006
I0
sVMemberCount
p3007
I0
sVOwnerUin
p3008
I0
sVMemberList
p3009
g50
sVAlias
p3010
g52
sVPYQuanPin
p3011
Vweixinkabao
p3012
sVSignature
p3013
V\u5e2e\u52a9\u89e3\u51b3\u4f7f\u7528\u5fae\u4fe1\u5361\u5238\u8fc7\u7a0b\u4e2d\u9047\u5230\u7684\u95ee\u9898\uff0c\u6536\u96c6\u5173\u4e8e\u5fae\u4fe1\u5361\u5238\u7684\u53cd\u9988\u5efa\u8bae\u3002
p3014
sVRemarkPYInitial
p3015
g52
sVContactFlag
p3016
I1
sVUin
p3017
I0
sVNickName
p3018
V\u5fae\u4fe1\u5361\u5305
p3019
sVAppAccountFlag
p3020
I0
sVVerifyFlag
p3021
I24
sVRemarkPYQuanPin
p3022
g52
sVHeadImgUrl
p3023
V/cgi-bin/mmwebwx-bin/webwxgeticon?seq=628400527&username=@cc1305e7b94dcfae69d33adf39622a83&skey=@crypt_17449ad9_a9a1d041023c89b07381fe036e221b03
p3024
sVKeyWord
p3025
Vgh_
p3026
sVProvince
p3027
V\u5e7f\u4e1c
p3028
sVPYInitial
p3029
VWXKB
p3030
sVRemarkName
p3031
g52
sVStarFriend
p3032
I0
sVSex
p3033
I0
sVIsOwner
p3034
I0
sVHideInputBarFlag
p3035
I0
sVChatRoomId
p3036
I0
sVEncryChatRoomId
p3037
g52
sVAttrStatus
p3038
I0
sVStatues
p3039
I0
stp3040
Rp3041
I1
bag34
(g2869
g39
(dp3042
VUserName
p3043
V@c867e8ac2c20e9bf04cf78fdff06871e
p3044
sVCity
p3045
g52
sVSnsFlag
p3046
I0
sVDisplayName
p3047
g52
sVUniFriend
p3048
I0
sVMemberCount
p3049
I0
sVOwnerUin
p3050
I0
sVMemberList
p3051
g50
sVAlias
p3052
g52
sVPYQuanPin
p3053
Vweixinzhifu
p3054
sVSignature
p3055
V\u5e2e\u52a9\u89e3\u51b3\u5fae\u4fe1\u652f\u4ed8\u4e2d\u9047\u5230\u7684\u56f0\u96be\uff0c\u6536\u96c6\u5173\u4e8e\u5fae\u4fe1\u652f\u4ed8\u7684\u5efa\u8bae\u53cd\u9988\u3002
p3056
sVRemarkPYInitial
p3057
g52
sVContactFlag
p3058
I1
sVUin
p3059
I0
sVNickName
p3060
V\u5fae\u4fe1\u652f\u4ed8
p3061
sVAppAccountFlag
p3062
I0
sVVerifyFlag
p3063
I24
sVRemarkPYQuanPin
p3064
g52
sVHeadImgUrl
p3065
V/cgi-bin/mmwebwx-bin/webwxgeticon?seq=620421725&username=@c867e8ac2c20e9bf04cf78fdff06871e&skey=@crypt_17449ad9_a9a1d041023c89b07381fe036e221b03
p3066
sVKeyWord
p3067
Vgh_
p3068
sVProvince
p3069
V\u5e7f\u4e1c
p3070
sVPYInitial
p3071
VWXZF
p3072
sVRemarkName
p3073
g52
sVStarFriend
p3074
I0
sVSex
p3075
I0
sVIsOwner
p3076
I0
sVHideInputBarFlag
p3077
I0
sVChatRoomId
p3078
I0
sVEncryChatRoomId
p3079
g52
sVAttrStatus
p3080
I0
sVStatues
p3081
I0
stp3082
Rp3083
I1
bag34
(g2869
g39
(dp3084
VUserName
p3085
V@53be912adb3998229a4bc4f441f42035
p3086
sVCity
p3087
V\u6d66\u4e1c\u65b0\u533a
p3088
sVSnsFlag
p3089
I0
sVDisplayName
p3090
g52
sVUniFriend
p3091
I0
sVMemberCount
p3092
I0
sVOwnerUin
p3093
I0
sVMemberList
p3094
g50
sVAlias
p3095
g52
sVPYQuanPin
p3096
Vpaicaifu
p3097
sVSignature
p3098
V\u5404\u4f4d\u62cd\u53cb\uff0c\u975e\u5e38\u62b1\u6b49\uff0c\u7531\u4e8e\u4e3b\u4f53\u53d8\u66f4\u95ee\u9898\uff0c\u672c\u53f7\u5df2\u88ab\u5f03\u7528\uff01 \u8bf7\u5927\u5bb6\u79fb\u6b65\u65b0\u8ba2\u9605\u53f7\u201c\u62cd\u8d22\u5bcc\u7406\u8d22Club\u201d\uff0c\u6211\u4eec\u5c06\u6bcf\u65e5\u66f4\u65b0\u4f18\u60e0\u6d3b\u52a8\u3001\u62cd\u53cb\u798f\u5229\u7b49\uff0c\u656c\u8bf7\u5173\u6ce8\uff01 \u53e6\uff0c\u65b0\u7684\u670d\u52a1\u53f7\u201c\u62cd\u8d22\u5bcc\u670d\u52a1\u53f7\u201d\u5df2\u5728\u79ef\u6781\u7b79\u5907\uff0c\u63d0\u73b0/\u8d4e\u56de\u8fdb\u5ea6\u67e5\u8be2\u7b49\u6838\u5fc3\u529f\u80fd\u5373\u5c06\u4e0a\u7ebf\uff0c\u656c\u8bf7\u671f\u5f85\uff01
p3099
sVRemarkPYInitial
p3100
g52
sVContactFlag
p3101
I1
sVUin
p3102
I0
sVNickName
p3103
V\u62cd\u8d22\u5bcc
p3104
sVAppAccountFlag
p3105
I0
sVVerifyFlag
p3106
I8
sVRemarkPYQuanPin
p3107
g52
sVHeadImgUrl
p3108
V/cgi-bin/mmwebwx-bin/webwxgeticon?seq=648672101&username=@53be912adb3998229a4bc4f441f42035&skey=@crypt_17449ad9_a9a1d041023c89b07381fe036e221b03
p3109
sVKeyWord
p3110
Vgh_
p3111
sVProvince
p3112
V\u4e0a\u6d77
p3113
sVPYInitial
p3114
VPCF
p3115
sVRemarkName
p3116
g52
sVStarFriend
p3117
I0
sVSex
p3118
I0
sVIsOwner
p3119
I0
sVHideInputBarFlag
p3120
I0
sVChatRoomId
p3121
I0
sVEncryChatRoomId
p3122
g52
sVAttrStatus
p3123
I0
sVStatues
p3124
I0
stp3125
Rp3126
I1
bag34
(g2869
g39
(dp3127
VUserName
p3128
V@933c6c232d873fe1dd54de8920e0b9e2
p3129
sVCity
p3130
V\u671d\u9633
p3131
sVSnsFlag
p3132
I0
sVDisplayName
p3133
g52
sVUniFriend
p3134
I0
sVMemberCount
p3135
I0
sVOwnerUin
p3136
I0
sVMemberList
p3137
g50
sVAlias
p3138
g52
sVPYQuanPin
p3139
Vandaoquangongzuoshi
p3140
sVSignature
p3141
V\u4e13\u6ce8\u4e8e\u4fdd\u672c\u6295\u8d44\u7684\u5c11\u6570\u6d3e\u62a5\u544a\uff0c\u57fa\u4e8e\u5e02\u573a\u4e0d\u53ef\u6d4b\uff0c\u64c5\u957f\u5927\u5c0f\u6838\u548c\u8f6c\u503a\u6295\u8d44\u3002\u300a\u53ef\u8f6c\u503a\u6295\u8d44\u9b54\u6cd5\u4e66\u300b\u4f5c\u8005\u3002
p3142
sVRemarkPYInitial
p3143
g52
sVContactFlag
p3144
I3
sVUin
p3145
I0
sVNickName
p3146
V\u5b89\u9053\u5168\u5de5\u4f5c\u5ba4
p3147
sVAppAccountFlag
p3148
I0
sVVerifyFlag
p3149
I8
sVRemarkPYQuanPin
p3150
g52
sVHeadImgUrl
p3151
V/cgi-bin/mmwebwx-bin/webwxgeticon?seq=657365081&username=@933c6c232d873fe1dd54de8920e0b9e2&skey=@crypt_17449ad9_a9a1d041023c89b07381fe036e221b03
p3152
sVKeyWord
p3153
Vgh_
p3154
sVProvince
p3155
V\u5317\u4eac
p3156
sVPYInitial
p3157
VADQGZS
p3158
sVRemarkName
p3159
g52
sVStarFriend
p3160
I0
sVSex
p3161
I0
sVIsOwner
p3162
I0
sVHideInputBarFlag
p3163
I0
sVChatRoomId
p3164
I0
sVEncryChatRoomId
p3165
g52
sVAttrStatus
p3166
I0
sVStatues
p3167
I0
stp3168
Rp3169
I1
bag34
(g2869
g39
(dp3170
VUserName
p3171
V@f2d7fa6d60165a0504eb10744d3470d9
p3172
sVCity
p3173
V\u6d66\u4e1c\u65b0\u533a
p3174
sVSnsFlag
p3175
I0
sVDisplayName
p3176
g52
sVUniFriend
p3177
I0
sVMemberCount
p3178
I0
sVOwnerUin
p3179
I0
sVMemberList
p3180
g50
sVAlias
p3181
g52
sVPYQuanPin
p3182
Vhuaanjijin
p3183
sVSignature
p3184
V\u6c5f\u5357\u7b2c\u4e00\u5927\u624d\u5b50\u5510\u4f2f\u864e\u503e\u60c5\u4ee3\u8a00\u534e\u5b89\u57fa\u91d1\u5b98\u65b9\u8d26\u53f7\uff0c\u67e5\u51c0\u503c\u3001\u4e70\u57fa\u91d1\u3001\u770b\u8d44\u8baf\uff0c\u6837\u6837\u7686\u7cbe\uff0c\u9664\u6b64\u4e4b\u5916\uff0c\u8fd8\u6709\u8d85\u591a\u7cbe\u5f69\u6d3b\u52a8\u6708\u6708\u66f4\u65b0!
p3185
sVRemarkPYInitial
p3186
g52
sVContactFlag
p3187
I1
sVUin
p3188
I0
sVNickName
p3189
V\u534e\u5b89\u57fa\u91d1
p3190
sVAppAccountFlag
p3191
I0
sVVerifyFlag
p3192
I24
sVRemarkPYQuanPin
p3193
g52
sVHeadImgUrl
p3194
V/cgi-bin/mmwebwx-bin/webwxgeticon?seq=640421232&username=@f2d7fa6d60165a0504eb10744d3470d9&skey=@crypt_17449ad9_a9a1d041023c89b07381fe036e221b03
p3195
sVKeyWord
p3196
Vgh_
p3197
sVProvince
p3198
V\u4e0a\u6d77
p3199
sVPYInitial
p3200
VHAJJ
p3201
sVRemarkName
p3202
g52
sVStarFriend
p3203
I0
sVSex
p3204
I0
sVIsOwner
p3205
I0
sVHideInputBarFlag
p3206
I0
sVChatRoomId
p3207
I0
sVEncryChatRoomId
p3208
g52
sVAttrStatus
p3209
I0
sVStatues
p3210
I0
stp3211
Rp3212
I1
bag34
(g2869
g39
(dp3213
VUserName
p3214
V@218a950cb0a96b6175a25fbe34d15014
p3215
sVCity
p3216
V\u4e1c\u57ce
p3217
sVSnsFlag
p3218
I0
sVDisplayName
p3219
g52
sVUniFriend
p3220
I0
sVMemberCount
p3221
I0
sVOwnerUin
p3222
I0
sVMemberList
p3223
g50
sVAlias
p3224
g52
sVPYQuanPin
p3225
Vzhongxinjiantouzhengquangufenyouxiangongsi
p3226
sVSignature
p3227
V\u4e2d\u4fe1\u5efa\u6295\u8bc1\u5238\u80a1\u4efd\u6709\u9650\u516c\u53f8\u5b98\u65b9\u5fae\u4fe1
p3228
sVRemarkPYInitial
p3229
g52
sVContactFlag
p3230
I1
sVUin
p3231
I0
sVNickName
p3232
V\u4e2d\u4fe1\u5efa\u6295\u8bc1\u5238\u80a1\u4efd\u6709\u9650\u516c\u53f8
p3233
sVAppAccountFlag
p3234
I0
sVVerifyFlag
p3235
I24
sVRemarkPYQuanPin
p3236
g52
sVHeadImgUrl
p3237
V/cgi-bin/mmwebwx-bin/webwxgeticon?seq=620591486&username=@218a950cb0a96b6175a25fbe34d15014&skey=@crypt_17449ad9_a9a1d041023c89b07381fe036e221b03
p3238
sVKeyWord
p3239
Vgh_
p3240
sVProvince
p3241
V\u5317\u4eac
p3242
sVPYInitial
p3243
VZXJTZQGFYXGS
p3244
sVRemarkName
p3245
g52
sVStarFriend
p3246
I0
sVSex
p3247
I0
sVIsOwner
p3248
I0
sVHideInputBarFlag
p3249
I0
sVChatRoomId
p3250
I0
sVEncryChatRoomId
p3251
g52
sVAttrStatus
p3252
I0
sVStatues
p3253
I0
stp3254
Rp3255
I1
bag34
(g2869
g39
(dp3256
VUserName
p3257
V@eb9d068d17853f799c865db1dbf30100
p3258
sVCity
p3259
V\u6d66\u4e1c\u65b0\u533a
p3260
sVSnsFlag
p3261
I0
sVDisplayName
p3262
g52
sVUniFriend
p3263
I0
sVMemberCount
p3264
I0
sVOwnerUin
p3265
I0
sVMemberList
p3266
g50
sVAlias
p3267
g52
sVPYQuanPin
p3268
Vshanghaipaipaidai
p3269
sVSignature
p3270
V\u6b22\u8fce\u5173\u6ce8\u4e0a\u6d77\u62cd\u62cd\u8d37\u5b98\u65b9\u670d\u52a1\u53f7\uff0c\u624b\u673a\u4e0a\u5373\u53ef\u968f\u65f6\u7533\u8bf7\u501f\u6b3e\uff0c1\u79d2\u67e5\u8be2\u501f\u6b3e\u8fdb\u5ea6\uff0c\u53ca\u65f6\u4e0a\u4f20\u501f\u6b3e\u8d44\u6599\uff0c\u6700\u5feb\u5f53\u5929\u5230\u8d26\uff0c\u5b9e\u65f6\u63d0\u9192\u8d26\u6237\u52a8\u6001\uff0c\u79fb\u52a8\u7aef\u501f\u6b3e\u795e\u5668\u3002
p3271
sVRemarkPYInitial
p3272
g52
sVContactFlag
p3273
I1
sVUin
p3274
I0
sVNickName
p3275
V\u4e0a\u6d77\u62cd\u62cd\u8d37
p3276
sVAppAccountFlag
p3277
I0
sVVerifyFlag
p3278
I24
sVRemarkPYQuanPin
p3279
g52
sVHeadImgUrl
p3280
V/cgi-bin/mmwebwx-bin/webwxgeticon?seq=643361520&username=@eb9d068d17853f799c865db1dbf30100&skey=@crypt_17449ad9_a9a1d041023c89b07381fe036e221b03
p3281
sVKeyWord
p3282
Vgh_
p3283
sVProvince
p3284
V\u4e0a\u6d77
p3285
sVPYInitial
p3286
VSHPPD
p3287
sVRemarkName
p3288
g52
sVStarFriend
p3289
I0
sVSex
p3290
I0
sVIsOwner
p3291
I0
sVHideInputBarFlag
p3292
I0
sVChatRoomId
p3293
I0
sVEncryChatRoomId
p3294
g52
sVAttrStatus
p3295
I0
sVStatues
p3296
I0
stp3297
Rp3298
I1
bag34
(g2869
g39
(dp3299
VUserName
p3300
V@29bb09d65aa2054ef6150b4667096c29
p3301
sVCity
p3302
V\u6df1\u5733
p3303
sVSnsFlag
p3304
I0
sVDisplayName
p3305
g52
sVUniFriend
p3306
I0
sVMemberCount
p3307
I0
sVOwnerUin
p3308
I0
sVMemberList
p3309
g50
sVAlias
p3310
g52
sVPYQuanPin
p3311
Vfutuzhengquan
p3312
sVSignature
p3313
V\u6e2f\u80a1\u7f8e\u80a1\uff0c\u9996\u9009\u5bcc\u9014\uff0c\u9080\u8bf7\u597d\u53cb\u5f00\u6237\u5373\u4eab0\u4f63\u91d1\uff01\u5bcc\u9014\u8bc1\u5238\u5b98\u7f51\uff1ahttps://www.futu5.com
p3314
sVRemarkPYInitial
p3315
g52
sVContactFlag
p3316
I1
sVUin
p3317
I0
sVNickName
p3318
V\u5bcc\u9014\u8bc1\u5238
p3319
sVAppAccountFlag
p3320
I0
sVVerifyFlag
p3321
I24
sVRemarkPYQuanPin
p3322
g52
sVHeadImgUrl
p3323
V/cgi-bin/mmwebwx-bin/webwxgeticon?seq=640421818&username=@29bb09d65aa2054ef6150b4667096c29&skey=@crypt_17449ad9_a9a1d041023c89b07381fe036e221b03
p3324
sVKeyWord
p3325
Vgh_
p3326
sVProvince
p3327
V\u5e7f\u4e1c
p3328
sVPYInitial
p3329
VFTZQ
p3330
sVRemarkName
p3331
g52
sVStarFriend
p3332
I0
sVSex
p3333
I0
sVIsOwner
p3334
I0
sVHideInputBarFlag
p3335
I0
sVChatRoomId
p3336
I0
sVEncryChatRoomId
p3337
g52
sVAttrStatus
p3338
I0
sVStatues
p3339
I0
stp3340
Rp3341
I1
bag34
(g2869
g39
(dp3342
VUserName
p3343
V@dabc57f0e9c80f878986bc47ccdb2bda
p3344
sVCity
p3345
g52
sVSnsFlag
p3346
I0
sVDisplayName
p3347
g52
sVUniFriend
p3348
I0
sVMemberCount
p3349
I0
sVOwnerUin
p3350
I0
sVMemberList
p3351
g50
sVAlias
p3352
g52
sVPYQuanPin
p3353
Vlujinsuoweifuwu
p3354
sVSignature
p3355
V\u9646\u91d1\u6240\u5fae\u670d\u52a1\uff0c\u63d0\u4f9b\u9646\u91d1\u6240\uff08lu.com\uff09\u4e1a\u52a1\u54a8\u8be2\u3001\u4fe1\u606f\u67e5\u8be2\uff0c\u66f4\u53ef\u4e86\u89e3\u6700\u65b0\u7684\u6d3b\u52a8\u4fe1\u606f\u3002
p3356
sVRemarkPYInitial
p3357
g52
sVContactFlag
p3358
I1
sVUin
p3359
I0
sVNickName
p3360
V\u9646\u91d1\u6240\u5fae\u670d\u52a1
p3361
sVAppAccountFlag
p3362
I0
sVVerifyFlag
p3363
I24
sVRemarkPYQuanPin
p3364
g52
sVHeadImgUrl
p3365
V/cgi-bin/mmwebwx-bin/webwxgeticon?seq=635801367&username=@dabc57f0e9c80f878986bc47ccdb2bda&skey=@crypt_17449ad9_a9a1d041023c89b07381fe036e221b03
p3366
sVKeyWord
p3367
Vgh_
p3368
sVProvince
p3369
V\u4e0a\u6d77
p3370
sVPYInitial
p3371
VLJSWFW
p3372
sVRemarkName
p3373
g52
sVStarFriend
p3374
I0
sVSex
p3375
I0
sVIsOwner
p3376
I0
sVHideInputBarFlag
p3377
I0
sVChatRoomId
p3378
I0
sVEncryChatRoomId
p3379
g52
sVAttrStatus
p3380
I0
sVStatues
p3381
I0
stp3382
Rp3383
I1
bag34
(g2869
g39
(dp3384
VUserName
p3385
V@b6d0982887094002807ea10be93f0bd4
p3386
sVCity
p3387
V\u6d66\u4e1c\u65b0\u533a
p3388
sVSnsFlag
p3389
I0
sVDisplayName
p3390
g52
sVUniFriend
p3391
I0
sVMemberCount
p3392
I0
sVOwnerUin
p3393
I0
sVMemberList
p3394
g50
sVAlias
p3395
g52
sVPYQuanPin
p3396
Vzhongyinjijin
p3397
sVSignature
p3398
V\u4e2d\u56fd\u94f6\u884c\u65d7\u4e0b\u57fa\u91d1\u7ba1\u7406\u516c\u53f8\u3002\u672c\u670d\u52a1\u53f7\u4e3a\u60a8\u63d0\u4f9b\u57fa\u91d1\u51c0\u503c\u53ca\u8d26\u6237\u67e5\u8be2\uff0c\u57fa\u91d1\u4ea4\u6613\u7b49\u670d\u52a1\uff0c\u901a\u8fc7\u4e2d\u94f6\u6d3b\u671f\u5b9d\u8d2d\u4e70\u57fa\u91d1\u66f4\u53ef\u4eab0\u5143\u7533\u8d2d\u8d39\u4f18\u60e0\uff0c\u4e00\u7701\u5230\u5e95\uff01\u8fd8\u6709\u66f4\u591a\u5c0f\u60ca\u559c\u7b49\u60a8\u53d1\u73b0\uff01
p3399
sVRemarkPYInitial
p3400
g52
sVContactFlag
p3401
I1
sVUin
p3402
I0
sVNickName
p3403
V\u4e2d\u94f6\u57fa\u91d1
p3404
sVAppAccountFlag
p3405
I0
sVVerifyFlag
p3406
I24
sVRemarkPYQuanPin
p3407
g52
sVHeadImgUrl
p3408
V/cgi-bin/mmwebwx-bin/webwxgeticon?seq=637262236&username=@b6d0982887094002807ea10be93f0bd4&skey=@crypt_17449ad9_a9a1d041023c89b07381fe036e221b03
p3409
sVKeyWord
p3410
Vgh_
p3411
sVProvince
p3412
V\u4e0a\u6d77
p3413
sVPYInitial
p3414
VZYJJ
p3415
sVRemarkName
p3416
g52
sVStarFriend
p3417
I0
sVSex
p3418
I0
sVIsOwner
p3419
I0
sVHideInputBarFlag
p3420
I0
sVChatRoomId
p3421
I0
sVEncryChatRoomId
p3422
g52
sVAttrStatus
p3423
I0
sVStatues
p3424
I0
stp3425
Rp3426
I1
bag34
(g2869
g39
(dp3427
VUserName
p3428
V@072dcd1399d9d7518dc8ed4957a819c6
p3429
sVCity
p3430
V\u95f8\u5317
p3431
sVSnsFlag
p3432
I0
sVDisplayName
p3433
g52
sVUniFriend
p3434
I0
sVMemberCount
p3435
I0
sVOwnerUin
p3436
I0
sVMemberList
p3437
g50
sVAlias
p3438
g52
sVPYQuanPin
p3439
Vdarunfa
p3440
sVSignature
p3441
V\u3010\u5927\u6da6\u53d1\u5b98\u65b9\u670d\u52a1\u53f7\u3011\u7531\u53f0\u6e7e\u6da6\u6cf0\u96c6\u56e2\u6295\u8d44\u521b\u529e\u7684\u4f1a\u5458\u5236\u5927\u578b\u8fde\u9501\u7efc\u5408\u8d85\u5e02\uff0c\u622a\u6b62\u81f32017\u5e741\u6708\u5e95\uff0c\u5171\u5f00\u8bbe367\u5bb6\u95e8\u5e97\u3002\u5173\u6ce8\u6211\u4eec\uff0c\u60a8\u53ef\u4ee5\u83b7\u5f97\u6700\u65b0\u9c9c\u7684\u4f18\u60e0\u8d44\u8baf\u3001\u95e8\u5e97\u6d3b\u52a8\u53ca\u73ed\u8f66\u67e5\u8be2\u7b49\u4fbf\u5229\u4fe1\u606f\u3002
p3442
sVRemarkPYInitial
p3443
g52
sVContactFlag
p3444
I1
sVUin
p3445
I0
sVNickName
p3446
V\u5927\u6da6\u53d1
p3447
sVAppAccountFlag
p3448
I0
sVVerifyFlag
p3449
I24
sVRemarkPYQuanPin
p3450
g52
sVHeadImgUrl
p3451
V/cgi-bin/mmwebwx-bin/webwxgeticon?seq=657365019&username=@072dcd1399d9d7518dc8ed4957a819c6&skey=@crypt_17449ad9_a9a1d041023c89b07381fe036e221b03
p3452
sVKeyWord
p3453
Vgh_
p3454
sVProvince
p3455
V\u4e0a\u6d77
p3456
sVPYInitial
p3457
VDRF
p3458
sVRemarkName
p3459
g52
sVStarFriend
p3460
I0
sVSex
p3461
I0
sVIsOwner
p3462
I0
sVHideInputBarFlag
p3463
I0
sVChatRoomId
p3464
I0
sVEncryChatRoomId
p3465
g52
sVAttrStatus
p3466
I0
sVStatues
p3467
I0
stp3468
Rp3469
I1
bag34
(g2869
g39
(dp3470
VUserName
p3471
V@15e405c6cb87a79a04d73936606c61ec
p3472
sVCity
p3473
V\u6d66\u4e1c\u65b0\u533a
p3474
sVSnsFlag
p3475
I0
sVDisplayName
p3476
g52
sVUniFriend
p3477
I0
sVMemberCount
p3478
I0
sVOwnerUin
p3479
I0
sVMemberList
p3480
g50
sVAlias
p3481
g52
sVPYQuanPin
p3482
Vzhaoshangyinxingxinyongka
p3483
sVSignature
p3484
V\u62db\u884c\u4fe1\u7528\u5361\u5b98\u65b9\u5fae\u5ba2\u670d\uff0c\u5168\u9762\u4fdd\u969c\u60a8\u7528\u5361\u5b89\u5168\uff1b\u53ef\u5f00\u901a\u7b14\u7b14\u4ea4\u6613\u63d0\u9192\uff0c\u66f4\u63d0\u4f9b\u201c\u7533\u8bf7\u529e\u5361\u3001\u8d26\u5355\u4e0e\u79ef\u5206\u67e5\u8be2\u3001\u989d\u5ea6\u63d0\u5347\u201d\u7b49\u8bf8\u591a\u670d\u52a1\uff0c\u8ba9\u60a8\u4e00\u7ecf\u5c1d\u8bd5\u4fbf\u96be\u4ee5\u5272\u820d\uff0c\u6211\u4eec\u662f2500\u4e07\u7528\u6237\u7684\u5171\u540c\u9009\u62e9\uff01
p3485
sVRemarkPYInitial
p3486
g52
sVContactFlag
p3487
I1
sVUin
p3488
I0
sVNickName
p3489
V\u62db\u5546\u94f6\u884c\u4fe1\u7528\u5361
p3490
sVAppAccountFlag
p3491
I0
sVVerifyFlag
p3492
I29
sVRemarkPYQuanPin
p3493
g52
sVHeadImgUrl
p3494
V/cgi-bin/mmwebwx-bin/webwxgeticon?seq=620594340&username=@15e405c6cb87a79a04d73936606c61ec&skey=@crypt_17449ad9_a9a1d041023c89b07381fe036e221b03
p3495
sVKeyWord
p3496
Vcmb
p3497
sVProvince
p3498
V\u4e0a\u6d77
p3499
sVPYInitial
p3500
VZSYXXYK
p3501
sVRemarkName
p3502
g52
sVStarFriend
p3503
I0
sVSex
p3504
I0
sVIsOwner
p3505
I0
sVHideInputBarFlag
p3506
I0
sVChatRoomId
p3507
I0
sVEncryChatRoomId
p3508
g52
sVAttrStatus
p3509
I0
sVStatues
p3510
I0
stp3511
Rp3512
I1
bag34
(g2869
g39
(dp3513
VUserName
p3514
V@006408a9892da2b7eeec4fc9a1f30ca7
p3515
sVCity
p3516
V\u671d\u9633
p3517
sVSnsFlag
p3518
I0
sVDisplayName
p3519
g52
sVUniFriend
p3520
I0
sVMemberCount
p3521
I0
sVOwnerUin
p3522
I0
sVMemberList
p3523
g50
sVAlias
p3524
g52
sVPYQuanPin
p3525
Vlandiaokouqinwang
p3526
sVSignature
p3527
V\u84dd\u8c03\u53e3\u7434\u7f51\uff08tenholes.com\uff09\u65d7\u4e0b\u552f\u4e00\u5b98\u65b9\u6307\u5b9a\u516c\u4f17\u5e73\u53f0\uff0c\u6bcf\u5468\u672b\u66f4\u65b0\u4e00\u6b21\uff0c\u5173\u4e8e\u53e3\u7434\u7684\u72ec\u5bb6\u6559\u5b66\u3001\u73cd\u8d35\u8d44\u6599\u3001\u56fd\u9645\u6700\u65b0\u52a8\u6001\uff0c\u6700\u65b0\u6f14\u51fa\u4fe1\u606f\uff1b\u6bcf\u4e2a\u6708\u53d1\u4e00\u6b21\u798f\u5229\uff0c\u9001\u53e3\u7434\uff0c\u9001VIP\uff0c\u9001\u9001\u9001\uff01\u201cBoogieman\u201d\u5f20\u6653\u677e\u6f14\u51fa\u6307\u5b9a\u7528\u7434\u3002
p3528
sVRemarkPYInitial
p3529
g52
sVContactFlag
p3530
I1
sVUin
p3531
I0
sVNickName
p3532
V\u84dd\u8c03\u53e3\u7434\u7f51
p3533
sVAppAccountFlag
p3534
I0
sVVerifyFlag
p3535
I24
sVRemarkPYQuanPin
p3536
g52
sVHeadImgUrl
p3537
V/cgi-bin/mmwebwx-bin/webwxgeticon?seq=628402488&username=@006408a9892da2b7eeec4fc9a1f30ca7&skey=@crypt_17449ad9_a9a1d041023c89b07381fe036e221b03
p3538
sVKeyWord
p3539
Vgh_
p3540
sVProvince
p3541
V\u5317\u4eac
p3542
sVPYInitial
p3543
VLDKQW
p3544
sVRemarkName
p3545
g52
sVStarFriend
p3546
I0
sVSex
p3547
I0
sVIsOwner
p3548
I0
sVHideInputBarFlag
p3549
I0
sVChatRoomId
p3550
I0
sVEncryChatRoomId
p3551
g52
sVAttrStatus
p3552
I0
sVStatues
p3553
I0
stp3554
Rp3555
I1
batp3556
Rp3557
I1
bssS'loginInfo'
p3558
(dp3559
S'SyncKey'
p3560
(dp3561
VCount
p3562
I8
sVList
p3563
(lp3564
(dp3565
VVal
p3566
I657366617
sVKey
p3567
I1
sa(dp3568
VVal
p3569
I657366868
sVKey
p3570
I2
sa(dp3571
VVal
p3572
I657366833
sVKey
p3573
I3
sa(dp3574
VVal
p3575
I657366796
sVKey
p3576
I11
sa(dp3577
VVal
p3578
I657360008
sVKey
p3579
I13
sa(dp3580
VVal
p3581
I1493630678
sVKey
p3582
I201
sa(dp3583
VVal
p3584
I1493627722
sVKey
p3585
I1000
sa(dp3586
VVal
p3587
I1493621071
sVKey
p3588
I1001
sassS'syncUrl'
p3589
S'https://webpush.wx.qq.com/cgi-bin/mmwebwx-bin'
p3590
sS'skey'
p3591
V@crypt_17449ad9_a9a1d041023c89b07381fe036e221b03
p3592
sS'wxuin'
p3593
V2574261122
p3594
sS'synckey'
p3595
S'1_657366617|2_657366868|3_657366833|11_657366796|13_657360008|201_1493630678|1000_1493627722|1001_1493621071'
p3596
sS'url'
p3597
Vhttps://wx.qq.com/cgi-bin/mmwebwx-bin
p3598
sS'pass_ticket'
p3599
V8%2Fc7nUEE7FE2XtoPNuMjxM7cwN9J7jxALNmgJCzKrGeTPhZvl6bwYk8EjzVjmoKy
p3600
sS'wxsid'
p3601
Vr/KhtAM3C0ofrftK
p3602
sS'BaseRequest'
p3603
(dp3604
g54
g3594
sS'Skey'
p3605
g3592
sS'DeviceID'
p3606
g3600
sS'Sid'
p3607
g3602
ssS'User'
p3608
g34
(g38
g39
(dp3609
g41
g31
sg42
g43
sg44
g43
sg45
I0
sg47
g50
sg51
g52
sg53
g52
sg78
I1
sg55
I0
sg56
I0
sg57
g43
sg58
g43
sg59
g52
sg60
g52
sg61
I0
sg62
I0
sg63
I1
sg64
g43
sg65
I0
sg68
I0
sg66
I17
sg67
I0
sg46
I0
sg69
g43
sg70
g71
sg72
I0
sg73
g74
sg75
g52
sg76
g77
sg54
L2574261122L
sg79
I0
sg80
I0
stp3610
Rp3611
I1
bsS'fileUrl'
p3612
S'https://file.wx.qq.com/cgi-bin/mmwebwx-bin'
p3613
sS'InviteStartCount'
p3614
I40
sS'deviceid'
p3615
S'e638173839629251'
p3616
ss.